


ARM Macro Assembler    Page 1 


    1 00000000         ; generated by Component: ARM Compiler 5.06 (build 20) T
                       ool: ArmCC [4d35a4]
    2 00000000         ; commandline ArmCC [--c99 --split_sections --debug -c -
                       S -ofw\lis3dh_driver.s --depend=fw\lis3dh_driver.d --cpu
                       =Cortex-M3 --apcs=interwork -O0 --diag_suppress=9931 -I.
                       ./Inc -I../Drivers/STM32L1xx_HAL_Driver/Inc -I../Drivers
                       /STM32L1xx_HAL_Driver/Inc/Legacy -I../Middlewares/Third_
                       Party/FatFs/src/drivers -I../Middlewares/Third_Party/Fat
                       Fs/src -I../Drivers/CMSIS/Include -I../Drivers/CMSIS/Dev
                       ice/ST/STM32L1xx/Include -IC:\Sensor\FW\MDK-ARM\RTE -IC:
                       \Keil\ARM\PACK\ARM\CMSIS\4.5.0\CMSIS\Include -IC:\Keil\A
                       RM\PACK\Keil\STM32L1xx_DFP\1.0.2\Device\Include -D__MICR
                       OLIB -D__UVISION_VERSION=516 -D_RTE_ -DSTM32L1XX_HD -DUS
                       E_HAL_DRIVER -DSTM32L151xD --omf_browse=fw\lis3dh_driver
                       .crf ..\Src\lis3dh_driver.c]
    3 00000000                 THUMB
    4 00000000                 REQUIRE8
    5 00000000                 PRESERVE8
    6 00000000         
    7 00000000                 AREA             ||i.LIS3DH_FIFOModeEnable||, CO
DE, READONLY, ALIGN=1
    8 00000000         
    9 00000000         LIS3DH_FIFOModeEnable
                               PROC
   10 00000000 B538            PUSH             {r3-r5,lr}
   11 00000002 4604            MOV              r4,r0
   12 00000004 2C04            CMP              r4,#4
   13 00000006 D12A            BNE              |L0.94|
   14 00000008 4669            MOV              r1,sp
   15 0000000A 202E            MOVS             r0,#0x2e
   16 0000000C F7FF FFFE       BL               LIS3DH_ReadReg
   17 00000010 B908            CBNZ             r0,|L0.22|
   18 00000012 2000            MOVS             r0,#0
   19 00000014         |L0.20|
   20 00000014 BD38            POP              {r3-r5,pc}
   21 00000016         |L0.22|
   22 00000016 F89D 0000       LDRB             r0,[sp,#0]
   23 0000001A F000 001F       AND              r0,r0,#0x1f
   24 0000001E 9000            STR              r0,[sp,#0]
   25 00000020 F89D 0000       LDRB             r0,[sp,#0]
   26 00000024 9000            STR              r0,[sp,#0]
   27 00000026 F89D 1000       LDRB             r1,[sp,#0]
   28 0000002A 202E            MOVS             r0,#0x2e
   29 0000002C F7FF FFFE       BL               LIS3DH_WriteReg
   30 00000030 B908            CBNZ             r0,|L0.54|
   31 00000032 2000            MOVS             r0,#0
   32 00000034 E7EE            B                |L0.20|
   33 00000036         |L0.54|
   34 00000036 4669            MOV              r1,sp
   35 00000038 2024            MOVS             r0,#0x24
   36 0000003A F7FF FFFE       BL               LIS3DH_ReadReg
   37 0000003E B908            CBNZ             r0,|L0.68|
   38 00000040 2000            MOVS             r0,#0
   39 00000042 E7E7            B                |L0.20|
   40 00000044         |L0.68|
   41 00000044 F89D 0000       LDRB             r0,[sp,#0]
   42 00000048 F000 00BF       AND              r0,r0,#0xbf
   43 0000004C 9000            STR              r0,[sp,#0]
   44 0000004E F89D 1000       LDRB             r1,[sp,#0]



ARM Macro Assembler    Page 2 


   45 00000052 2024            MOVS             r0,#0x24
   46 00000054 F7FF FFFE       BL               LIS3DH_WriteReg
   47 00000058 B908            CBNZ             r0,|L0.94|
   48 0000005A 2000            MOVS             r0,#0
   49 0000005C E7DA            B                |L0.20|
   50 0000005E         |L0.94|
   51 0000005E BB94            CBNZ             r4,|L0.198|
   52 00000060 4669            MOV              r1,sp
   53 00000062 2024            MOVS             r0,#0x24
   54 00000064 F7FF FFFE       BL               LIS3DH_ReadReg
   55 00000068 B908            CBNZ             r0,|L0.110|
   56 0000006A 2000            MOVS             r0,#0
   57 0000006C E7D2            B                |L0.20|
   58 0000006E         |L0.110|
   59 0000006E F89D 0000       LDRB             r0,[sp,#0]
   60 00000072 F000 00BF       AND              r0,r0,#0xbf
   61 00000076 9000            STR              r0,[sp,#0]
   62 00000078 F89D 0000       LDRB             r0,[sp,#0]
   63 0000007C F040 0040       ORR              r0,r0,#0x40
   64 00000080 9000            STR              r0,[sp,#0]
   65 00000082 F89D 1000       LDRB             r1,[sp,#0]
   66 00000086 2024            MOVS             r0,#0x24
   67 00000088 F7FF FFFE       BL               LIS3DH_WriteReg
   68 0000008C B908            CBNZ             r0,|L0.146|
   69 0000008E 2000            MOVS             r0,#0
   70 00000090 E7C0            B                |L0.20|
   71 00000092         |L0.146|
   72 00000092 4669            MOV              r1,sp
   73 00000094 202E            MOVS             r0,#0x2e
   74 00000096 F7FF FFFE       BL               LIS3DH_ReadReg
   75 0000009A B908            CBNZ             r0,|L0.160|
   76 0000009C 2000            MOVS             r0,#0
   77 0000009E E7B9            B                |L0.20|
   78 000000A0         |L0.160|
   79 000000A0 F89D 0000       LDRB             r0,[sp,#0]
   80 000000A4 F000 001F       AND              r0,r0,#0x1f
   81 000000A8 9000            STR              r0,[sp,#0]
   82 000000AA F89D 0000       LDRB             r0,[sp,#0]
   83 000000AE EA40 1084       ORR              r0,r0,r4,LSL #6
   84 000000B2 B2C0            UXTB             r0,r0
   85 000000B4 9000            STR              r0,[sp,#0]
   86 000000B6 F89D 1000       LDRB             r1,[sp,#0]
   87 000000BA 202E            MOVS             r0,#0x2e
   88 000000BC F7FF FFFE       BL               LIS3DH_WriteReg
   89 000000C0 B908            CBNZ             r0,|L0.198|
   90 000000C2 2000            MOVS             r0,#0
   91 000000C4 E7A6            B                |L0.20|
   92 000000C6         |L0.198|
   93 000000C6 E7FF            B                |L0.200|
   94 000000C8         |L0.200|
   95 000000C8 2C01            CMP              r4,#1
   96 000000CA D132            BNE              |L0.306|
   97 000000CC 4669            MOV              r1,sp
   98 000000CE 2024            MOVS             r0,#0x24
   99 000000D0 F7FF FFFE       BL               LIS3DH_ReadReg
  100 000000D4 B908            CBNZ             r0,|L0.218|
  101 000000D6 2000            MOVS             r0,#0
  102 000000D8 E79C            B                |L0.20|
  103 000000DA         |L0.218|



ARM Macro Assembler    Page 3 


  104 000000DA F89D 0000       LDRB             r0,[sp,#0]
  105 000000DE F000 00BF       AND              r0,r0,#0xbf
  106 000000E2 9000            STR              r0,[sp,#0]
  107 000000E4 F89D 0000       LDRB             r0,[sp,#0]
  108 000000E8 F040 0040       ORR              r0,r0,#0x40
  109 000000EC 9000            STR              r0,[sp,#0]
  110 000000EE F89D 1000       LDRB             r1,[sp,#0]
  111 000000F2 2024            MOVS             r0,#0x24
  112 000000F4 F7FF FFFE       BL               LIS3DH_WriteReg
  113 000000F8 B908            CBNZ             r0,|L0.254|
  114 000000FA 2000            MOVS             r0,#0
  115 000000FC E78A            B                |L0.20|
  116 000000FE         |L0.254|
  117 000000FE 4669            MOV              r1,sp
  118 00000100 202E            MOVS             r0,#0x2e
  119 00000102 F7FF FFFE       BL               LIS3DH_ReadReg
  120 00000106 B908            CBNZ             r0,|L0.268|
  121 00000108 2000            MOVS             r0,#0
  122 0000010A E783            B                |L0.20|
  123 0000010C         |L0.268|
  124 0000010C F89D 0000       LDRB             r0,[sp,#0]
  125 00000110 F000 001F       AND              r0,r0,#0x1f
  126 00000114 9000            STR              r0,[sp,#0]
  127 00000116 F89D 0000       LDRB             r0,[sp,#0]
  128 0000011A EA40 1084       ORR              r0,r0,r4,LSL #6
  129 0000011E B2C0            UXTB             r0,r0
  130 00000120 9000            STR              r0,[sp,#0]
  131 00000122 F89D 1000       LDRB             r1,[sp,#0]
  132 00000126 202E            MOVS             r0,#0x2e
  133 00000128 F7FF FFFE       BL               LIS3DH_WriteReg
  134 0000012C B908            CBNZ             r0,|L0.306|
  135 0000012E 2000            MOVS             r0,#0
  136 00000130 E770            B                |L0.20|
  137 00000132         |L0.306|
  138 00000132 2C02            CMP              r4,#2
  139 00000134 D132            BNE              |L0.412|
  140 00000136 4669            MOV              r1,sp
  141 00000138 2024            MOVS             r0,#0x24
  142 0000013A F7FF FFFE       BL               LIS3DH_ReadReg
  143 0000013E B908            CBNZ             r0,|L0.324|
  144 00000140 2000            MOVS             r0,#0
  145 00000142 E767            B                |L0.20|
  146 00000144         |L0.324|
  147 00000144 F89D 0000       LDRB             r0,[sp,#0]
  148 00000148 F000 00BF       AND              r0,r0,#0xbf
  149 0000014C 9000            STR              r0,[sp,#0]
  150 0000014E F89D 0000       LDRB             r0,[sp,#0]
  151 00000152 F040 0040       ORR              r0,r0,#0x40
  152 00000156 9000            STR              r0,[sp,#0]
  153 00000158 F89D 1000       LDRB             r1,[sp,#0]
  154 0000015C 2024            MOVS             r0,#0x24
  155 0000015E F7FF FFFE       BL               LIS3DH_WriteReg
  156 00000162 B908            CBNZ             r0,|L0.360|
  157 00000164 2000            MOVS             r0,#0
  158 00000166 E755            B                |L0.20|
  159 00000168         |L0.360|
  160 00000168 4669            MOV              r1,sp
  161 0000016A 202E            MOVS             r0,#0x2e
  162 0000016C F7FF FFFE       BL               LIS3DH_ReadReg



ARM Macro Assembler    Page 4 


  163 00000170 B908            CBNZ             r0,|L0.374|
  164 00000172 2000            MOVS             r0,#0
  165 00000174 E74E            B                |L0.20|
  166 00000176         |L0.374|
  167 00000176 F89D 0000       LDRB             r0,[sp,#0]
  168 0000017A F000 001F       AND              r0,r0,#0x1f
  169 0000017E 9000            STR              r0,[sp,#0]
  170 00000180 F89D 0000       LDRB             r0,[sp,#0]
  171 00000184 EA40 1084       ORR              r0,r0,r4,LSL #6
  172 00000188 B2C0            UXTB             r0,r0
  173 0000018A 9000            STR              r0,[sp,#0]
  174 0000018C F89D 1000       LDRB             r1,[sp,#0]
  175 00000190 202E            MOVS             r0,#0x2e
  176 00000192 F7FF FFFE       BL               LIS3DH_WriteReg
  177 00000196 B908            CBNZ             r0,|L0.412|
  178 00000198 2000            MOVS             r0,#0
  179 0000019A E73B            B                |L0.20|
  180 0000019C         |L0.412|
  181 0000019C 2C03            CMP              r4,#3
  182 0000019E D132            BNE              |L0.518|
  183 000001A0 4669            MOV              r1,sp
  184 000001A2 2024            MOVS             r0,#0x24
  185 000001A4 F7FF FFFE       BL               LIS3DH_ReadReg
  186 000001A8 B908            CBNZ             r0,|L0.430|
  187 000001AA 2000            MOVS             r0,#0
  188 000001AC E732            B                |L0.20|
  189 000001AE         |L0.430|
  190 000001AE F89D 0000       LDRB             r0,[sp,#0]
  191 000001B2 F000 00BF       AND              r0,r0,#0xbf
  192 000001B6 9000            STR              r0,[sp,#0]
  193 000001B8 F89D 0000       LDRB             r0,[sp,#0]
  194 000001BC F040 0040       ORR              r0,r0,#0x40
  195 000001C0 9000            STR              r0,[sp,#0]
  196 000001C2 F89D 1000       LDRB             r1,[sp,#0]
  197 000001C6 2024            MOVS             r0,#0x24
  198 000001C8 F7FF FFFE       BL               LIS3DH_WriteReg
  199 000001CC B908            CBNZ             r0,|L0.466|
  200 000001CE 2000            MOVS             r0,#0
  201 000001D0 E720            B                |L0.20|
  202 000001D2         |L0.466|
  203 000001D2 4669            MOV              r1,sp
  204 000001D4 202E            MOVS             r0,#0x2e
  205 000001D6 F7FF FFFE       BL               LIS3DH_ReadReg
  206 000001DA B908            CBNZ             r0,|L0.480|
  207 000001DC 2000            MOVS             r0,#0
  208 000001DE E719            B                |L0.20|
  209 000001E0         |L0.480|
  210 000001E0 F89D 0000       LDRB             r0,[sp,#0]
  211 000001E4 F000 001F       AND              r0,r0,#0x1f
  212 000001E8 9000            STR              r0,[sp,#0]
  213 000001EA F89D 0000       LDRB             r0,[sp,#0]
  214 000001EE EA40 1084       ORR              r0,r0,r4,LSL #6
  215 000001F2 B2C0            UXTB             r0,r0
  216 000001F4 9000            STR              r0,[sp,#0]
  217 000001F6 F89D 1000       LDRB             r1,[sp,#0]
  218 000001FA 202E            MOVS             r0,#0x2e
  219 000001FC F7FF FFFE       BL               LIS3DH_WriteReg
  220 00000200 B908            CBNZ             r0,|L0.518|
  221 00000202 2000            MOVS             r0,#0



ARM Macro Assembler    Page 5 


  222 00000204 E706            B                |L0.20|
  223 00000206         |L0.518|
  224 00000206 2001            MOVS             r0,#1
  225 00000208 E704            B                |L0.20|
  226 0000020A                 ENDP
  227 0000020A         
  228 0000020A         
  229 0000020A                 AREA             ||i.LIS3DH_Get6DPosition||, COD
E, READONLY, ALIGN=1
  230 00000000         
  231 00000000         LIS3DH_Get6DPosition
                               PROC
  232 00000000 B538            PUSH             {r3-r5,lr}
  233 00000002 4604            MOV              r4,r0
  234 00000004 4669            MOV              r1,sp
  235 00000006 2031            MOVS             r0,#0x31
  236 00000008 F7FF FFFE       BL               LIS3DH_ReadReg
  237 0000000C B908            CBNZ             r0,|L1.18|
  238 0000000E 2000            MOVS             r0,#0
  239 00000010         |L1.16|
  240 00000010 BD38            POP              {r3-r5,pc}
  241 00000012         |L1.18|
  242 00000012 F89D 0000       LDRB             r0,[sp,#0]
  243 00000016 F000 007F       AND              r0,r0,#0x7f
  244 0000001A 9000            STR              r0,[sp,#0]
  245 0000001C F89D 0000       LDRB             r0,[sp,#0]
  246 00000020 2848            CMP              r0,#0x48
  247 00000022 D015            BEQ              |L1.80|
  248 00000024 DC06            BGT              |L1.52|
  249 00000026 2841            CMP              r0,#0x41
  250 00000028 D00F            BEQ              |L1.74|
  251 0000002A 2842            CMP              r0,#0x42
  252 0000002C D00A            BEQ              |L1.68|
  253 0000002E 2844            CMP              r0,#0x44
  254 00000030 D117            BNE              |L1.98|
  255 00000032 E004            B                |L1.62|
  256 00000034         |L1.52|
  257 00000034 2850            CMP              r0,#0x50
  258 00000036 D011            BEQ              |L1.92|
  259 00000038 2860            CMP              r0,#0x60
  260 0000003A D112            BNE              |L1.98|
  261 0000003C E00B            B                |L1.86|
  262 0000003E         |L1.62|
  263 0000003E 2044            MOVS             r0,#0x44
  264 00000040 7020            STRB             r0,[r4,#0]
  265 00000042 E00E            B                |L1.98|
  266 00000044         |L1.68|
  267 00000044 2042            MOVS             r0,#0x42
  268 00000046 7020            STRB             r0,[r4,#0]
  269 00000048 E00B            B                |L1.98|
  270 0000004A         |L1.74|
  271 0000004A 2041            MOVS             r0,#0x41
  272 0000004C 7020            STRB             r0,[r4,#0]
  273 0000004E E008            B                |L1.98|
  274 00000050         |L1.80|
  275 00000050 2048            MOVS             r0,#0x48
  276 00000052 7020            STRB             r0,[r4,#0]
  277 00000054 E005            B                |L1.98|
  278 00000056         |L1.86|



ARM Macro Assembler    Page 6 


  279 00000056 2060            MOVS             r0,#0x60
  280 00000058 7020            STRB             r0,[r4,#0]
  281 0000005A E002            B                |L1.98|
  282 0000005C         |L1.92|
  283 0000005C 2050            MOVS             r0,#0x50
  284 0000005E 7020            STRB             r0,[r4,#0]
  285 00000060 BF00            NOP
  286 00000062         |L1.98|
  287 00000062 BF00            NOP
  288 00000064 2001            MOVS             r0,#1
  289 00000066 E7D3            B                |L1.16|
  290 00000068                 ENDP
  291 00000068         
  292 00000068         
  293 00000068                 AREA             ||i.LIS3DH_GetAccAxesRaw||, COD
E, READONLY, ALIGN=1
  294 00000000         
  295 00000000         LIS3DH_GetAccAxesRaw
                               PROC
  296 00000000 B5F8            PUSH             {r3-r7,lr}
  297 00000002 4604            MOV              r4,r0
  298 00000004 466D            MOV              r5,sp
  299 00000006 1C6E            ADDS             r6,r5,#1
  300 00000008 4629            MOV              r1,r5
  301 0000000A 2028            MOVS             r0,#0x28
  302 0000000C F7FF FFFE       BL               LIS3DH_ReadReg
  303 00000010 B908            CBNZ             r0,|L2.22|
  304 00000012 2000            MOVS             r0,#0
  305 00000014         |L2.20|
  306 00000014 BDF8            POP              {r3-r7,pc}
  307 00000016         |L2.22|
  308 00000016 4631            MOV              r1,r6
  309 00000018 2029            MOVS             r0,#0x29
  310 0000001A F7FF FFFE       BL               LIS3DH_ReadReg
  311 0000001E B908            CBNZ             r0,|L2.36|
  312 00000020 2000            MOVS             r0,#0
  313 00000022 E7F7            B                |L2.20|
  314 00000024         |L2.36|
  315 00000024 F9BD 0000       LDRSH            r0,[sp,#0]
  316 00000028 8020            STRH             r0,[r4,#0]
  317 0000002A 4629            MOV              r1,r5
  318 0000002C 202A            MOVS             r0,#0x2a
  319 0000002E F7FF FFFE       BL               LIS3DH_ReadReg
  320 00000032 B908            CBNZ             r0,|L2.56|
  321 00000034 2000            MOVS             r0,#0
  322 00000036 E7ED            B                |L2.20|
  323 00000038         |L2.56|
  324 00000038 4631            MOV              r1,r6
  325 0000003A 202B            MOVS             r0,#0x2b
  326 0000003C F7FF FFFE       BL               LIS3DH_ReadReg
  327 00000040 B908            CBNZ             r0,|L2.70|
  328 00000042 2000            MOVS             r0,#0
  329 00000044 E7E6            B                |L2.20|
  330 00000046         |L2.70|
  331 00000046 F9BD 0000       LDRSH            r0,[sp,#0]
  332 0000004A 8060            STRH             r0,[r4,#2]
  333 0000004C 4629            MOV              r1,r5
  334 0000004E 202C            MOVS             r0,#0x2c
  335 00000050 F7FF FFFE       BL               LIS3DH_ReadReg



ARM Macro Assembler    Page 7 


  336 00000054 B908            CBNZ             r0,|L2.90|
  337 00000056 2000            MOVS             r0,#0
  338 00000058 E7DC            B                |L2.20|
  339 0000005A         |L2.90|
  340 0000005A 4631            MOV              r1,r6
  341 0000005C 202D            MOVS             r0,#0x2d
  342 0000005E F7FF FFFE       BL               LIS3DH_ReadReg
  343 00000062 B908            CBNZ             r0,|L2.104|
  344 00000064 2000            MOVS             r0,#0
  345 00000066 E7D5            B                |L2.20|
  346 00000068         |L2.104|
  347 00000068 F9BD 0000       LDRSH            r0,[sp,#0]
  348 0000006C 80A0            STRH             r0,[r4,#4]
  349 0000006E 2001            MOVS             r0,#1
  350 00000070 E7D0            B                |L2.20|
  351 00000072                 ENDP
  352 00000072         
  353 00000072         
  354 00000072                 AREA             ||i.LIS3DH_GetAuxRaw||, CODE, R
EADONLY, ALIGN=1
  355 00000000         
  356 00000000         LIS3DH_GetAuxRaw
                               PROC
  357 00000000 B51C            PUSH             {r2-r4,lr}
  358 00000002 4604            MOV              r4,r0
  359 00000004 A901            ADD              r1,sp,#4
  360 00000006 2008            MOVS             r0,#8
  361 00000008 F7FF FFFE       BL               LIS3DH_ReadReg
  362 0000000C B908            CBNZ             r0,|L3.18|
  363 0000000E 2000            MOVS             r0,#0
  364 00000010         |L3.16|
  365 00000010 BD1C            POP              {r2-r4,pc}
  366 00000012         |L3.18|
  367 00000012 4669            MOV              r1,sp
  368 00000014 2009            MOVS             r0,#9
  369 00000016 F7FF FFFE       BL               LIS3DH_ReadReg
  370 0000001A B908            CBNZ             r0,|L3.32|
  371 0000001C 2000            MOVS             r0,#0
  372 0000001E E7F7            B                |L3.16|
  373 00000020         |L3.32|
  374 00000020 F89D 1004       LDRB             r1,[sp,#4]
  375 00000024 F89D 2000       LDRB             r2,[sp,#0]
  376 00000028 EA41 2002       ORR              r0,r1,r2,LSL #8
  377 0000002C 17C1            ASRS             r1,r0,#31
  378 0000002E EB00 7111       ADD              r1,r0,r1,LSR #28
  379 00000032 1109            ASRS             r1,r1,#4
  380 00000034 8021            STRH             r1,[r4,#0]
  381 00000036 A901            ADD              r1,sp,#4
  382 00000038 200A            MOVS             r0,#0xa
  383 0000003A F7FF FFFE       BL               LIS3DH_ReadReg
  384 0000003E B908            CBNZ             r0,|L3.68|
  385 00000040 2000            MOVS             r0,#0
  386 00000042 E7E5            B                |L3.16|
  387 00000044         |L3.68|
  388 00000044 4669            MOV              r1,sp
  389 00000046 200B            MOVS             r0,#0xb
  390 00000048 F7FF FFFE       BL               LIS3DH_ReadReg
  391 0000004C B908            CBNZ             r0,|L3.82|
  392 0000004E 2000            MOVS             r0,#0



ARM Macro Assembler    Page 8 


  393 00000050 E7DE            B                |L3.16|
  394 00000052         |L3.82|
  395 00000052 F89D 1004       LDRB             r1,[sp,#4]
  396 00000056 F89D 2000       LDRB             r2,[sp,#0]
  397 0000005A EA41 2002       ORR              r0,r1,r2,LSL #8
  398 0000005E 17C1            ASRS             r1,r0,#31
  399 00000060 EB00 7111       ADD              r1,r0,r1,LSR #28
  400 00000064 1109            ASRS             r1,r1,#4
  401 00000066 8061            STRH             r1,[r4,#2]
  402 00000068 A901            ADD              r1,sp,#4
  403 0000006A 200C            MOVS             r0,#0xc
  404 0000006C F7FF FFFE       BL               LIS3DH_ReadReg
  405 00000070 B908            CBNZ             r0,|L3.118|
  406 00000072 2000            MOVS             r0,#0
  407 00000074 E7CC            B                |L3.16|
  408 00000076         |L3.118|
  409 00000076 4669            MOV              r1,sp
  410 00000078 200D            MOVS             r0,#0xd
  411 0000007A F7FF FFFE       BL               LIS3DH_ReadReg
  412 0000007E B908            CBNZ             r0,|L3.132|
  413 00000080 2000            MOVS             r0,#0
  414 00000082 E7C5            B                |L3.16|
  415 00000084         |L3.132|
  416 00000084 F89D 1004       LDRB             r1,[sp,#4]
  417 00000088 F89D 2000       LDRB             r2,[sp,#0]
  418 0000008C EA41 2002       ORR              r0,r1,r2,LSL #8
  419 00000090 17C1            ASRS             r1,r0,#31
  420 00000092 EB00 7111       ADD              r1,r0,r1,LSR #28
  421 00000096 1109            ASRS             r1,r1,#4
  422 00000098 80A1            STRH             r1,[r4,#4]
  423 0000009A 2001            MOVS             r0,#1
  424 0000009C E7B8            B                |L3.16|
  425 0000009E                 ENDP
  426 0000009E         
  427 0000009E         
  428 0000009E                 AREA             ||i.LIS3DH_GetClickResponse||, 
CODE, READONLY, ALIGN=1
  429 00000000         
  430 00000000         LIS3DH_GetClickResponse
                               PROC
  431 00000000 B538            PUSH             {r3-r5,lr}
  432 00000002 4604            MOV              r4,r0
  433 00000004 4669            MOV              r1,sp
  434 00000006 2039            MOVS             r0,#0x39
  435 00000008 F7FF FFFE       BL               LIS3DH_ReadReg
  436 0000000C B908            CBNZ             r0,|L4.18|
  437 0000000E 2000            MOVS             r0,#0
  438 00000010         |L4.16|
  439 00000010 BD38            POP              {r3-r5,pc}
  440 00000012         |L4.18|
  441 00000012 F89D 0000       LDRB             r0,[sp,#0]
  442 00000016 F000 007F       AND              r0,r0,#0x7f
  443 0000001A 9000            STR              r0,[sp,#0]
  444 0000001C F89D 0000       LDRB             r0,[sp,#0]
  445 00000020 F000 0040       AND              r0,r0,#0x40
  446 00000024 B918            CBNZ             r0,|L4.46|
  447 00000026 2000            MOVS             r0,#0
  448 00000028 7020            STRB             r0,[r4,#0]
  449 0000002A 2001            MOVS             r0,#1



ARM Macro Assembler    Page 9 


  450 0000002C E7F0            B                |L4.16|
  451 0000002E         |L4.46|
  452 0000002E F89D 0000       LDRB             r0,[sp,#0]
  453 00000032 F000 0020       AND              r0,r0,#0x20
  454 00000036 B390            CBZ              r0,|L4.158|
  455 00000038 F89D 0000       LDRB             r0,[sp,#0]
  456 0000003C F000 0008       AND              r0,r0,#8
  457 00000040 B1D8            CBZ              r0,|L4.122|
  458 00000042 F89D 0000       LDRB             r0,[sp,#0]
  459 00000046 F000 0004       AND              r0,r0,#4
  460 0000004A B118            CBZ              r0,|L4.84|
  461 0000004C 202C            MOVS             r0,#0x2c
  462 0000004E 7020            STRB             r0,[r4,#0]
  463 00000050 2001            MOVS             r0,#1
  464 00000052 E7DD            B                |L4.16|
  465 00000054         |L4.84|
  466 00000054 F89D 0000       LDRB             r0,[sp,#0]
  467 00000058 F000 0002       AND              r0,r0,#2
  468 0000005C B118            CBZ              r0,|L4.102|
  469 0000005E 202A            MOVS             r0,#0x2a
  470 00000060 7020            STRB             r0,[r4,#0]
  471 00000062 2001            MOVS             r0,#1
  472 00000064 E7D4            B                |L4.16|
  473 00000066         |L4.102|
  474 00000066 F89D 0000       LDRB             r0,[sp,#0]
  475 0000006A F000 0001       AND              r0,r0,#1
  476 0000006E 2800            CMP              r0,#0
  477 00000070 D05B            BEQ              |L4.298|
  478 00000072 2029            MOVS             r0,#0x29
  479 00000074 7020            STRB             r0,[r4,#0]
  480 00000076 2001            MOVS             r0,#1
  481 00000078 E7CA            B                |L4.16|
  482 0000007A         |L4.122|
  483 0000007A F89D 0000       LDRB             r0,[sp,#0]
  484 0000007E F000 0004       AND              r0,r0,#4
  485 00000082 B118            CBZ              r0,|L4.140|
  486 00000084 2024            MOVS             r0,#0x24
  487 00000086 7020            STRB             r0,[r4,#0]
  488 00000088 2001            MOVS             r0,#1
  489 0000008A E7C1            B                |L4.16|
  490 0000008C         |L4.140|
  491 0000008C F89D 0000       LDRB             r0,[sp,#0]
  492 00000090 F000 0002       AND              r0,r0,#2
  493 00000094 B120            CBZ              r0,|L4.160|
  494 00000096 2022            MOVS             r0,#0x22
  495 00000098 7020            STRB             r0,[r4,#0]
  496 0000009A 2001            MOVS             r0,#1
  497 0000009C E7B8            B                |L4.16|
  498 0000009E         |L4.158|
  499 0000009E E008            B                |L4.178|
  500 000000A0         |L4.160|
  501 000000A0 F89D 0000       LDRB             r0,[sp,#0]
  502 000000A4 F000 0001       AND              r0,r0,#1
  503 000000A8 B3A8            CBZ              r0,|L4.278|
  504 000000AA 2021            MOVS             r0,#0x21
  505 000000AC 7020            STRB             r0,[r4,#0]
  506 000000AE 2001            MOVS             r0,#1
  507 000000B0 E7AE            B                |L4.16|
  508 000000B2         |L4.178|



ARM Macro Assembler    Page 10 


  509 000000B2 F89D 0000       LDRB             r0,[sp,#0]
  510 000000B6 F000 0008       AND              r0,r0,#8
  511 000000BA B1D0            CBZ              r0,|L4.242|
  512 000000BC F89D 0000       LDRB             r0,[sp,#0]
  513 000000C0 F000 0004       AND              r0,r0,#4
  514 000000C4 B118            CBZ              r0,|L4.206|
  515 000000C6 201C            MOVS             r0,#0x1c
  516 000000C8 7020            STRB             r0,[r4,#0]
  517 000000CA 2001            MOVS             r0,#1
  518 000000CC E7A0            B                |L4.16|
  519 000000CE         |L4.206|
  520 000000CE F89D 0000       LDRB             r0,[sp,#0]
  521 000000D2 F000 0002       AND              r0,r0,#2
  522 000000D6 B118            CBZ              r0,|L4.224|
  523 000000D8 201A            MOVS             r0,#0x1a
  524 000000DA 7020            STRB             r0,[r4,#0]
  525 000000DC 2001            MOVS             r0,#1
  526 000000DE E797            B                |L4.16|
  527 000000E0         |L4.224|
  528 000000E0 F89D 0000       LDRB             r0,[sp,#0]
  529 000000E4 F000 0001       AND              r0,r0,#1
  530 000000E8 B1A8            CBZ              r0,|L4.278|
  531 000000EA 2019            MOVS             r0,#0x19
  532 000000EC 7020            STRB             r0,[r4,#0]
  533 000000EE 2001            MOVS             r0,#1
  534 000000F0 E78E            B                |L4.16|
  535 000000F2         |L4.242|
  536 000000F2 F89D 0000       LDRB             r0,[sp,#0]
  537 000000F6 F000 0004       AND              r0,r0,#4
  538 000000FA B118            CBZ              r0,|L4.260|
  539 000000FC 2014            MOVS             r0,#0x14
  540 000000FE 7020            STRB             r0,[r4,#0]
  541 00000100 2001            MOVS             r0,#1
  542 00000102 E785            B                |L4.16|
  543 00000104         |L4.260|
  544 00000104 F89D 0000       LDRB             r0,[sp,#0]
  545 00000108 F000 0002       AND              r0,r0,#2
  546 0000010C B120            CBZ              r0,|L4.280|
  547 0000010E 2012            MOVS             r0,#0x12
  548 00000110 7020            STRB             r0,[r4,#0]
  549 00000112 2001            MOVS             r0,#1
  550 00000114 E77C            B                |L4.16|
  551 00000116         |L4.278|
  552 00000116 E008            B                |L4.298|
  553 00000118         |L4.280|
  554 00000118 F89D 0000       LDRB             r0,[sp,#0]
  555 0000011C F000 0001       AND              r0,r0,#1
  556 00000120 B118            CBZ              r0,|L4.298|
  557 00000122 2011            MOVS             r0,#0x11
  558 00000124 7020            STRB             r0,[r4,#0]
  559 00000126 2001            MOVS             r0,#1
  560 00000128 E772            B                |L4.16|
  561 0000012A         |L4.298|
  562 0000012A 2000            MOVS             r0,#0
  563 0000012C E770            B                |L4.16|
  564 0000012E                 ENDP
  565 0000012E         
  566 0000012E         
  567 0000012E                 AREA             ||i.LIS3DH_GetFifoSourceBit||, 



ARM Macro Assembler    Page 11 


CODE, READONLY, ALIGN=1
  568 00000000         
  569 00000000         LIS3DH_GetFifoSourceBit
                               PROC
  570 00000000 B538            PUSH             {r3-r5,lr}
  571 00000002 4605            MOV              r5,r0
  572 00000004 460C            MOV              r4,r1
  573 00000006 4669            MOV              r1,sp
  574 00000008 202F            MOVS             r0,#0x2f
  575 0000000A F7FF FFFE       BL               LIS3DH_ReadReg
  576 0000000E B908            CBNZ             r0,|L5.20|
  577 00000010 2000            MOVS             r0,#0
  578 00000012         |L5.18|
  579 00000012 BD38            POP              {r3-r5,pc}
  580 00000014         |L5.20|
  581 00000014 2D80            CMP              r5,#0x80
  582 00000016 D10C            BNE              |L5.50|
  583 00000018 F89D 0000       LDRB             r0,[sp,#0]
  584 0000001C F000 0080       AND              r0,r0,#0x80
  585 00000020 9000            STR              r0,[sp,#0]
  586 00000022 B110            CBZ              r0,|L5.42|
  587 00000024 2001            MOVS             r0,#1
  588 00000026 7020            STRB             r0,[r4,#0]
  589 00000028 E7F3            B                |L5.18|
  590 0000002A         |L5.42|
  591 0000002A 2000            MOVS             r0,#0
  592 0000002C 7020            STRB             r0,[r4,#0]
  593 0000002E 2001            MOVS             r0,#1
  594 00000030 E7EF            B                |L5.18|
  595 00000032         |L5.50|
  596 00000032 2D40            CMP              r5,#0x40
  597 00000034 D10C            BNE              |L5.80|
  598 00000036 F89D 0000       LDRB             r0,[sp,#0]
  599 0000003A F000 0040       AND              r0,r0,#0x40
  600 0000003E 9000            STR              r0,[sp,#0]
  601 00000040 B110            CBZ              r0,|L5.72|
  602 00000042 2001            MOVS             r0,#1
  603 00000044 7020            STRB             r0,[r4,#0]
  604 00000046 E7E4            B                |L5.18|
  605 00000048         |L5.72|
  606 00000048 2000            MOVS             r0,#0
  607 0000004A 7020            STRB             r0,[r4,#0]
  608 0000004C 2001            MOVS             r0,#1
  609 0000004E E7E0            B                |L5.18|
  610 00000050         |L5.80|
  611 00000050 2D20            CMP              r5,#0x20
  612 00000052 D10F            BNE              |L5.116|
  613 00000054 D101            BNE              |L5.90|
  614 00000056 2001            MOVS             r0,#1
  615 00000058 E000            B                |L5.92|
  616 0000005A         |L5.90|
  617 0000005A 2000            MOVS             r0,#0
  618 0000005C         |L5.92|
  619 0000005C F89D 1000       LDRB             r1,[sp,#0]
  620 00000060 4008            ANDS             r0,r0,r1
  621 00000062 9000            STR              r0,[sp,#0]
  622 00000064 B110            CBZ              r0,|L5.108|
  623 00000066 2001            MOVS             r0,#1
  624 00000068 7020            STRB             r0,[r4,#0]



ARM Macro Assembler    Page 12 


  625 0000006A E7D2            B                |L5.18|
  626 0000006C         |L5.108|
  627 0000006C 2000            MOVS             r0,#0
  628 0000006E 7020            STRB             r0,[r4,#0]
  629 00000070 2001            MOVS             r0,#1
  630 00000072 E7CE            B                |L5.18|
  631 00000074         |L5.116|
  632 00000074 2000            MOVS             r0,#0
  633 00000076 E7CC            B                |L5.18|
  634 00000078                 ENDP
  635 00000078         
  636 00000078         
  637 00000078                 AREA             ||i.LIS3DH_GetFifoSourceFSS||, 
CODE, READONLY, ALIGN=1
  638 00000000         
  639 00000000         LIS3DH_GetFifoSourceFSS
                               PROC
  640 00000000 B538            PUSH             {r3-r5,lr}
  641 00000002 4604            MOV              r4,r0
  642 00000004 4669            MOV              r1,sp
  643 00000006 202F            MOVS             r0,#0x2f
  644 00000008 F7FF FFFE       BL               LIS3DH_ReadReg
  645 0000000C B908            CBNZ             r0,|L6.18|
  646 0000000E 2000            MOVS             r0,#0
  647 00000010         |L6.16|
  648 00000010 BD38            POP              {r3-r5,pc}
  649 00000012         |L6.18|
  650 00000012 F89D 0000       LDRB             r0,[sp,#0]
  651 00000016 F000 001F       AND              r0,r0,#0x1f
  652 0000001A 9000            STR              r0,[sp,#0]
  653 0000001C F89D 0000       LDRB             r0,[sp,#0]
  654 00000020 7020            STRB             r0,[r4,#0]
  655 00000022 2001            MOVS             r0,#1
  656 00000024 E7F4            B                |L6.16|
  657 00000026                 ENDP
  658 00000026         
  659 00000026         
  660 00000026                 AREA             ||i.LIS3DH_GetFifoSourceReg||, 
CODE, READONLY, ALIGN=1
  661 00000000         
  662 00000000         LIS3DH_GetFifoSourceReg
                               PROC
  663 00000000 B510            PUSH             {r4,lr}
  664 00000002 4604            MOV              r4,r0
  665 00000004 4621            MOV              r1,r4
  666 00000006 202F            MOVS             r0,#0x2f
  667 00000008 F7FF FFFE       BL               LIS3DH_ReadReg
  668 0000000C B908            CBNZ             r0,|L7.18|
  669 0000000E 2000            MOVS             r0,#0
  670 00000010         |L7.16|
  671 00000010 BD10            POP              {r4,pc}
  672 00000012         |L7.18|
  673 00000012 2001            MOVS             r0,#1
  674 00000014 E7FC            B                |L7.16|
  675 00000016                 ENDP
  676 00000016         
  677 00000016         
  678 00000016                 AREA             ||i.LIS3DH_GetInt1Src||, CODE, 
READONLY, ALIGN=1



ARM Macro Assembler    Page 13 


  679 00000000         
  680 00000000         LIS3DH_GetInt1Src
                               PROC
  681 00000000 B510            PUSH             {r4,lr}
  682 00000002 4604            MOV              r4,r0
  683 00000004 4621            MOV              r1,r4
  684 00000006 2031            MOVS             r0,#0x31
  685 00000008 F7FF FFFE       BL               LIS3DH_ReadReg
  686 0000000C B908            CBNZ             r0,|L8.18|
  687 0000000E 2000            MOVS             r0,#0
  688 00000010         |L8.16|
  689 00000010 BD10            POP              {r4,pc}
  690 00000012         |L8.18|
  691 00000012 2001            MOVS             r0,#1
  692 00000014 E7FC            B                |L8.16|
  693 00000016                 ENDP
  694 00000016         
  695 00000016         
  696 00000016                 AREA             ||i.LIS3DH_GetInt1SrcBit||, COD
E, READONLY, ALIGN=1
  697 00000000         
  698 00000000         LIS3DH_GetInt1SrcBit
                               PROC
  699 00000000 B538            PUSH             {r3-r5,lr}
  700 00000002 4605            MOV              r5,r0
  701 00000004 460C            MOV              r4,r1
  702 00000006 4669            MOV              r1,sp
  703 00000008 2031            MOVS             r0,#0x31
  704 0000000A F7FF FFFE       BL               LIS3DH_ReadReg
  705 0000000E B908            CBNZ             r0,|L9.20|
  706 00000010 2000            MOVS             r0,#0
  707 00000012         |L9.18|
  708 00000012 BD38            POP              {r3-r5,pc}
  709 00000014         |L9.20|
  710 00000014 2D40            CMP              r5,#0x40
  711 00000016 D10C            BNE              |L9.50|
  712 00000018 F89D 0000       LDRB             r0,[sp,#0]
  713 0000001C F000 0040       AND              r0,r0,#0x40
  714 00000020 9000            STR              r0,[sp,#0]
  715 00000022 B110            CBZ              r0,|L9.42|
  716 00000024 2001            MOVS             r0,#1
  717 00000026 7020            STRB             r0,[r4,#0]
  718 00000028 E7F3            B                |L9.18|
  719 0000002A         |L9.42|
  720 0000002A 2000            MOVS             r0,#0
  721 0000002C 7020            STRB             r0,[r4,#0]
  722 0000002E 2001            MOVS             r0,#1
  723 00000030 E7EF            B                |L9.18|
  724 00000032         |L9.50|
  725 00000032 2D20            CMP              r5,#0x20
  726 00000034 D10C            BNE              |L9.80|
  727 00000036 F89D 0000       LDRB             r0,[sp,#0]
  728 0000003A F000 0020       AND              r0,r0,#0x20
  729 0000003E 9000            STR              r0,[sp,#0]
  730 00000040 B110            CBZ              r0,|L9.72|
  731 00000042 2001            MOVS             r0,#1
  732 00000044 7020            STRB             r0,[r4,#0]
  733 00000046 E7E4            B                |L9.18|
  734 00000048         |L9.72|



ARM Macro Assembler    Page 14 


  735 00000048 2000            MOVS             r0,#0
  736 0000004A 7020            STRB             r0,[r4,#0]
  737 0000004C 2001            MOVS             r0,#1
  738 0000004E E7E0            B                |L9.18|
  739 00000050         |L9.80|
  740 00000050 2D10            CMP              r5,#0x10
  741 00000052 D10C            BNE              |L9.110|
  742 00000054 F89D 0000       LDRB             r0,[sp,#0]
  743 00000058 F000 0010       AND              r0,r0,#0x10
  744 0000005C 9000            STR              r0,[sp,#0]
  745 0000005E B110            CBZ              r0,|L9.102|
  746 00000060 2001            MOVS             r0,#1
  747 00000062 7020            STRB             r0,[r4,#0]
  748 00000064 E7D5            B                |L9.18|
  749 00000066         |L9.102|
  750 00000066 2000            MOVS             r0,#0
  751 00000068 7020            STRB             r0,[r4,#0]
  752 0000006A 2001            MOVS             r0,#1
  753 0000006C E7D1            B                |L9.18|
  754 0000006E         |L9.110|
  755 0000006E 2D08            CMP              r5,#8
  756 00000070 D10C            BNE              |L9.140|
  757 00000072 F89D 0000       LDRB             r0,[sp,#0]
  758 00000076 F000 0008       AND              r0,r0,#8
  759 0000007A 9000            STR              r0,[sp,#0]
  760 0000007C B110            CBZ              r0,|L9.132|
  761 0000007E 2001            MOVS             r0,#1
  762 00000080 7020            STRB             r0,[r4,#0]
  763 00000082 E7C6            B                |L9.18|
  764 00000084         |L9.132|
  765 00000084 2000            MOVS             r0,#0
  766 00000086 7020            STRB             r0,[r4,#0]
  767 00000088 2001            MOVS             r0,#1
  768 0000008A E7C2            B                |L9.18|
  769 0000008C         |L9.140|
  770 0000008C 2D04            CMP              r5,#4
  771 0000008E D10C            BNE              |L9.170|
  772 00000090 F89D 0000       LDRB             r0,[sp,#0]
  773 00000094 F000 0004       AND              r0,r0,#4
  774 00000098 9000            STR              r0,[sp,#0]
  775 0000009A B110            CBZ              r0,|L9.162|
  776 0000009C 2001            MOVS             r0,#1
  777 0000009E 7020            STRB             r0,[r4,#0]
  778 000000A0 E7B7            B                |L9.18|
  779 000000A2         |L9.162|
  780 000000A2 2000            MOVS             r0,#0
  781 000000A4 7020            STRB             r0,[r4,#0]
  782 000000A6 2001            MOVS             r0,#1
  783 000000A8 E7B3            B                |L9.18|
  784 000000AA         |L9.170|
  785 000000AA 2D02            CMP              r5,#2
  786 000000AC D10C            BNE              |L9.200|
  787 000000AE F89D 0000       LDRB             r0,[sp,#0]
  788 000000B2 F000 0002       AND              r0,r0,#2
  789 000000B6 9000            STR              r0,[sp,#0]
  790 000000B8 B110            CBZ              r0,|L9.192|
  791 000000BA 2001            MOVS             r0,#1
  792 000000BC 7020            STRB             r0,[r4,#0]
  793 000000BE E7A8            B                |L9.18|



ARM Macro Assembler    Page 15 


  794 000000C0         |L9.192|
  795 000000C0 2000            MOVS             r0,#0
  796 000000C2 7020            STRB             r0,[r4,#0]
  797 000000C4 2001            MOVS             r0,#1
  798 000000C6 E7A4            B                |L9.18|
  799 000000C8         |L9.200|
  800 000000C8 2D01            CMP              r5,#1
  801 000000CA D10C            BNE              |L9.230|
  802 000000CC F89D 0000       LDRB             r0,[sp,#0]
  803 000000D0 F000 0001       AND              r0,r0,#1
  804 000000D4 9000            STR              r0,[sp,#0]
  805 000000D6 B110            CBZ              r0,|L9.222|
  806 000000D8 2001            MOVS             r0,#1
  807 000000DA 7020            STRB             r0,[r4,#0]
  808 000000DC E799            B                |L9.18|
  809 000000DE         |L9.222|
  810 000000DE 2000            MOVS             r0,#0
  811 000000E0 7020            STRB             r0,[r4,#0]
  812 000000E2 2001            MOVS             r0,#1
  813 000000E4 E795            B                |L9.18|
  814 000000E6         |L9.230|
  815 000000E6 2000            MOVS             r0,#0
  816 000000E8 E793            B                |L9.18|
  817 000000EA                 ENDP
  818 000000EA         
  819 000000EA         
  820 000000EA                 AREA             ||i.LIS3DH_GetStatusAUX||, CODE
, READONLY, ALIGN=1
  821 00000000         
  822 00000000         LIS3DH_GetStatusAUX
                               PROC
  823 00000000 B510            PUSH             {r4,lr}
  824 00000002 4604            MOV              r4,r0
  825 00000004 4621            MOV              r1,r4
  826 00000006 2007            MOVS             r0,#7
  827 00000008 F7FF FFFE       BL               LIS3DH_ReadReg
  828 0000000C B908            CBNZ             r0,|L10.18|
  829 0000000E 2000            MOVS             r0,#0
  830 00000010         |L10.16|
  831 00000010 BD10            POP              {r4,pc}
  832 00000012         |L10.18|
  833 00000012 2001            MOVS             r0,#1
  834 00000014 E7FC            B                |L10.16|
  835 00000016                 ENDP
  836 00000016         
  837 00000016         
  838 00000016                 AREA             ||i.LIS3DH_GetStatusAUXBit||, C
ODE, READONLY, ALIGN=1
  839 00000000         
  840 00000000         LIS3DH_GetStatusAUXBit
                               PROC
  841 00000000 B538            PUSH             {r3-r5,lr}
  842 00000002 4605            MOV              r5,r0
  843 00000004 460C            MOV              r4,r1
  844 00000006 4669            MOV              r1,sp
  845 00000008 2007            MOVS             r0,#7
  846 0000000A F7FF FFFE       BL               LIS3DH_ReadReg
  847 0000000E B908            CBNZ             r0,|L11.20|
  848 00000010 2000            MOVS             r0,#0



ARM Macro Assembler    Page 16 


  849 00000012         |L11.18|
  850 00000012 BD38            POP              {r3-r5,pc}
  851 00000014         |L11.20|
  852 00000014 2D80            CMP              r5,#0x80
  853 00000016 D10C            BNE              |L11.50|
  854 00000018 F89D 0000       LDRB             r0,[sp,#0]
  855 0000001C F000 0080       AND              r0,r0,#0x80
  856 00000020 9000            STR              r0,[sp,#0]
  857 00000022 B110            CBZ              r0,|L11.42|
  858 00000024 2001            MOVS             r0,#1
  859 00000026 7020            STRB             r0,[r4,#0]
  860 00000028 E7F3            B                |L11.18|
  861 0000002A         |L11.42|
  862 0000002A 2000            MOVS             r0,#0
  863 0000002C 7020            STRB             r0,[r4,#0]
  864 0000002E 2001            MOVS             r0,#1
  865 00000030 E7EF            B                |L11.18|
  866 00000032         |L11.50|
  867 00000032 2D40            CMP              r5,#0x40
  868 00000034 D10C            BNE              |L11.80|
  869 00000036 F89D 0000       LDRB             r0,[sp,#0]
  870 0000003A F000 0040       AND              r0,r0,#0x40
  871 0000003E 9000            STR              r0,[sp,#0]
  872 00000040 B110            CBZ              r0,|L11.72|
  873 00000042 2001            MOVS             r0,#1
  874 00000044 7020            STRB             r0,[r4,#0]
  875 00000046 E7E4            B                |L11.18|
  876 00000048         |L11.72|
  877 00000048 2000            MOVS             r0,#0
  878 0000004A 7020            STRB             r0,[r4,#0]
  879 0000004C 2001            MOVS             r0,#1
  880 0000004E E7E0            B                |L11.18|
  881 00000050         |L11.80|
  882 00000050 2D20            CMP              r5,#0x20
  883 00000052 D10C            BNE              |L11.110|
  884 00000054 F89D 0000       LDRB             r0,[sp,#0]
  885 00000058 F000 0020       AND              r0,r0,#0x20
  886 0000005C 9000            STR              r0,[sp,#0]
  887 0000005E B110            CBZ              r0,|L11.102|
  888 00000060 2001            MOVS             r0,#1
  889 00000062 7020            STRB             r0,[r4,#0]
  890 00000064 E7D5            B                |L11.18|
  891 00000066         |L11.102|
  892 00000066 2000            MOVS             r0,#0
  893 00000068 7020            STRB             r0,[r4,#0]
  894 0000006A 2001            MOVS             r0,#1
  895 0000006C E7D1            B                |L11.18|
  896 0000006E         |L11.110|
  897 0000006E 2D10            CMP              r5,#0x10
  898 00000070 D10C            BNE              |L11.140|
  899 00000072 F89D 0000       LDRB             r0,[sp,#0]
  900 00000076 F000 0010       AND              r0,r0,#0x10
  901 0000007A 9000            STR              r0,[sp,#0]
  902 0000007C B110            CBZ              r0,|L11.132|
  903 0000007E 2001            MOVS             r0,#1
  904 00000080 7020            STRB             r0,[r4,#0]
  905 00000082 E7C6            B                |L11.18|
  906 00000084         |L11.132|
  907 00000084 2000            MOVS             r0,#0



ARM Macro Assembler    Page 17 


  908 00000086 7020            STRB             r0,[r4,#0]
  909 00000088 2001            MOVS             r0,#1
  910 0000008A E7C2            B                |L11.18|
  911 0000008C         |L11.140|
  912 0000008C 2D08            CMP              r5,#8
  913 0000008E D10C            BNE              |L11.170|
  914 00000090 F89D 0000       LDRB             r0,[sp,#0]
  915 00000094 F000 0008       AND              r0,r0,#8
  916 00000098 9000            STR              r0,[sp,#0]
  917 0000009A B110            CBZ              r0,|L11.162|
  918 0000009C 2001            MOVS             r0,#1
  919 0000009E 7020            STRB             r0,[r4,#0]
  920 000000A0 E7B7            B                |L11.18|
  921 000000A2         |L11.162|
  922 000000A2 2000            MOVS             r0,#0
  923 000000A4 7020            STRB             r0,[r4,#0]
  924 000000A6 2001            MOVS             r0,#1
  925 000000A8 E7B3            B                |L11.18|
  926 000000AA         |L11.170|
  927 000000AA 2D04            CMP              r5,#4
  928 000000AC D10C            BNE              |L11.200|
  929 000000AE F89D 0000       LDRB             r0,[sp,#0]
  930 000000B2 F000 0004       AND              r0,r0,#4
  931 000000B6 9000            STR              r0,[sp,#0]
  932 000000B8 B110            CBZ              r0,|L11.192|
  933 000000BA 2001            MOVS             r0,#1
  934 000000BC 7020            STRB             r0,[r4,#0]
  935 000000BE E7A8            B                |L11.18|
  936 000000C0         |L11.192|
  937 000000C0 2000            MOVS             r0,#0
  938 000000C2 7020            STRB             r0,[r4,#0]
  939 000000C4 2001            MOVS             r0,#1
  940 000000C6 E7A4            B                |L11.18|
  941 000000C8         |L11.200|
  942 000000C8 2D02            CMP              r5,#2
  943 000000CA D10C            BNE              |L11.230|
  944 000000CC F89D 0000       LDRB             r0,[sp,#0]
  945 000000D0 F000 0002       AND              r0,r0,#2
  946 000000D4 9000            STR              r0,[sp,#0]
  947 000000D6 B110            CBZ              r0,|L11.222|
  948 000000D8 2001            MOVS             r0,#1
  949 000000DA 7020            STRB             r0,[r4,#0]
  950 000000DC E799            B                |L11.18|
  951 000000DE         |L11.222|
  952 000000DE 2000            MOVS             r0,#0
  953 000000E0 7020            STRB             r0,[r4,#0]
  954 000000E2 2001            MOVS             r0,#1
  955 000000E4 E795            B                |L11.18|
  956 000000E6         |L11.230|
  957 000000E6 2D01            CMP              r5,#1
  958 000000E8 D10C            BNE              |L11.260|
  959 000000EA F89D 0000       LDRB             r0,[sp,#0]
  960 000000EE F000 0001       AND              r0,r0,#1
  961 000000F2 9000            STR              r0,[sp,#0]
  962 000000F4 B110            CBZ              r0,|L11.252|
  963 000000F6 2001            MOVS             r0,#1
  964 000000F8 7020            STRB             r0,[r4,#0]
  965 000000FA E78A            B                |L11.18|
  966 000000FC         |L11.252|



ARM Macro Assembler    Page 18 


  967 000000FC 2000            MOVS             r0,#0
  968 000000FE 7020            STRB             r0,[r4,#0]
  969 00000100 2001            MOVS             r0,#1
  970 00000102 E786            B                |L11.18|
  971 00000104         |L11.260|
  972 00000104 2000            MOVS             r0,#0
  973 00000106 E784            B                |L11.18|
  974 00000108                 ENDP
  975 00000108         
  976 00000108         
  977 00000108                 AREA             ||i.LIS3DH_GetStatusBit||, CODE
, READONLY, ALIGN=1
  978 00000000         
  979 00000000         LIS3DH_GetStatusBit
                               PROC
  980 00000000 B538            PUSH             {r3-r5,lr}
  981 00000002 4605            MOV              r5,r0
  982 00000004 460C            MOV              r4,r1
  983 00000006 4669            MOV              r1,sp
  984 00000008 2027            MOVS             r0,#0x27
  985 0000000A F7FF FFFE       BL               LIS3DH_ReadReg
  986 0000000E B908            CBNZ             r0,|L12.20|
  987 00000010 2000            MOVS             r0,#0
  988 00000012         |L12.18|
  989 00000012 BD38            POP              {r3-r5,pc}
  990 00000014         |L12.20|
  991 00000014 2D10            CMP              r5,#0x10
  992 00000016 D036            BEQ              |L12.134|
  993 00000018 DC08            BGT              |L12.44|
  994 0000001A 2D01            CMP              r5,#1
  995 0000001C D067            BEQ              |L12.238|
  996 0000001E 2D02            CMP              r5,#2
  997 00000020 D058            BEQ              |L12.212|
  998 00000022 2D04            CMP              r5,#4
  999 00000024 D049            BEQ              |L12.186|
 1000 00000026 2D08            CMP              r5,#8
 1001 00000028 D16E            BNE              |L12.264|
 1002 0000002A E039            B                |L12.160|
 1003 0000002C         |L12.44|
 1004 0000002C 2D20            CMP              r5,#0x20
 1005 0000002E D01D            BEQ              |L12.108|
 1006 00000030 2D40            CMP              r5,#0x40
 1007 00000032 D00E            BEQ              |L12.82|
 1008 00000034 2D80            CMP              r5,#0x80
 1009 00000036 D167            BNE              |L12.264|
 1010 00000038 F89D 0000       LDRB             r0,[sp,#0]
 1011 0000003C F000 0080       AND              r0,r0,#0x80
 1012 00000040 9000            STR              r0,[sp,#0]
 1013 00000042 B110            CBZ              r0,|L12.74|
 1014 00000044 2001            MOVS             r0,#1
 1015 00000046 7020            STRB             r0,[r4,#0]
 1016 00000048 E7E3            B                |L12.18|
 1017 0000004A         |L12.74|
 1018 0000004A 2000            MOVS             r0,#0
 1019 0000004C 7020            STRB             r0,[r4,#0]
 1020 0000004E 2001            MOVS             r0,#1
 1021 00000050 E7DF            B                |L12.18|
 1022 00000052         |L12.82|
 1023 00000052 F89D 0000       LDRB             r0,[sp,#0]



ARM Macro Assembler    Page 19 


 1024 00000056 F000 0040       AND              r0,r0,#0x40
 1025 0000005A 9000            STR              r0,[sp,#0]
 1026 0000005C B110            CBZ              r0,|L12.100|
 1027 0000005E 2001            MOVS             r0,#1
 1028 00000060 7020            STRB             r0,[r4,#0]
 1029 00000062 E7D6            B                |L12.18|
 1030 00000064         |L12.100|
 1031 00000064 2000            MOVS             r0,#0
 1032 00000066 7020            STRB             r0,[r4,#0]
 1033 00000068 2001            MOVS             r0,#1
 1034 0000006A E7D2            B                |L12.18|
 1035 0000006C         |L12.108|
 1036 0000006C F89D 0000       LDRB             r0,[sp,#0]
 1037 00000070 F000 0020       AND              r0,r0,#0x20
 1038 00000074 9000            STR              r0,[sp,#0]
 1039 00000076 B110            CBZ              r0,|L12.126|
 1040 00000078 2001            MOVS             r0,#1
 1041 0000007A 7020            STRB             r0,[r4,#0]
 1042 0000007C E7C9            B                |L12.18|
 1043 0000007E         |L12.126|
 1044 0000007E 2000            MOVS             r0,#0
 1045 00000080 7020            STRB             r0,[r4,#0]
 1046 00000082 2001            MOVS             r0,#1
 1047 00000084 E7C5            B                |L12.18|
 1048 00000086         |L12.134|
 1049 00000086 F89D 0000       LDRB             r0,[sp,#0]
 1050 0000008A F000 0010       AND              r0,r0,#0x10
 1051 0000008E 9000            STR              r0,[sp,#0]
 1052 00000090 B110            CBZ              r0,|L12.152|
 1053 00000092 2001            MOVS             r0,#1
 1054 00000094 7020            STRB             r0,[r4,#0]
 1055 00000096 E7BC            B                |L12.18|
 1056 00000098         |L12.152|
 1057 00000098 2000            MOVS             r0,#0
 1058 0000009A 7020            STRB             r0,[r4,#0]
 1059 0000009C 2001            MOVS             r0,#1
 1060 0000009E E7B8            B                |L12.18|
 1061 000000A0         |L12.160|
 1062 000000A0 F89D 0000       LDRB             r0,[sp,#0]
 1063 000000A4 F000 0008       AND              r0,r0,#8
 1064 000000A8 9000            STR              r0,[sp,#0]
 1065 000000AA B110            CBZ              r0,|L12.178|
 1066 000000AC 2001            MOVS             r0,#1
 1067 000000AE 7020            STRB             r0,[r4,#0]
 1068 000000B0 E7AF            B                |L12.18|
 1069 000000B2         |L12.178|
 1070 000000B2 2000            MOVS             r0,#0
 1071 000000B4 7020            STRB             r0,[r4,#0]
 1072 000000B6 2001            MOVS             r0,#1
 1073 000000B8 E7AB            B                |L12.18|
 1074 000000BA         |L12.186|
 1075 000000BA F89D 0000       LDRB             r0,[sp,#0]
 1076 000000BE F000 0004       AND              r0,r0,#4
 1077 000000C2 9000            STR              r0,[sp,#0]
 1078 000000C4 B110            CBZ              r0,|L12.204|
 1079 000000C6 2001            MOVS             r0,#1
 1080 000000C8 7020            STRB             r0,[r4,#0]
 1081 000000CA E7A2            B                |L12.18|
 1082 000000CC         |L12.204|



ARM Macro Assembler    Page 20 


 1083 000000CC 2000            MOVS             r0,#0
 1084 000000CE 7020            STRB             r0,[r4,#0]
 1085 000000D0 2001            MOVS             r0,#1
 1086 000000D2 E79E            B                |L12.18|
 1087 000000D4         |L12.212|
 1088 000000D4 F89D 0000       LDRB             r0,[sp,#0]
 1089 000000D8 F000 0002       AND              r0,r0,#2
 1090 000000DC 9000            STR              r0,[sp,#0]
 1091 000000DE B110            CBZ              r0,|L12.230|
 1092 000000E0 2001            MOVS             r0,#1
 1093 000000E2 7020            STRB             r0,[r4,#0]
 1094 000000E4 E795            B                |L12.18|
 1095 000000E6         |L12.230|
 1096 000000E6 2000            MOVS             r0,#0
 1097 000000E8 7020            STRB             r0,[r4,#0]
 1098 000000EA 2001            MOVS             r0,#1
 1099 000000EC E791            B                |L12.18|
 1100 000000EE         |L12.238|
 1101 000000EE F89D 0000       LDRB             r0,[sp,#0]
 1102 000000F2 F000 0001       AND              r0,r0,#1
 1103 000000F6 9000            STR              r0,[sp,#0]
 1104 000000F8 B110            CBZ              r0,|L12.256|
 1105 000000FA 2001            MOVS             r0,#1
 1106 000000FC 7020            STRB             r0,[r4,#0]
 1107 000000FE E788            B                |L12.18|
 1108 00000100         |L12.256|
 1109 00000100 2000            MOVS             r0,#0
 1110 00000102 7020            STRB             r0,[r4,#0]
 1111 00000104 2001            MOVS             r0,#1
 1112 00000106 E784            B                |L12.18|
 1113 00000108         |L12.264|
 1114 00000108 2000            MOVS             r0,#0
 1115 0000010A E782            B                |L12.18|
 1116 0000010C                 ENDP
 1117 0000010C         
 1118 0000010C         
 1119 0000010C                 AREA             ||i.LIS3DH_GetStatusReg||, CODE
, READONLY, ALIGN=1
 1120 00000000         
 1121 00000000         LIS3DH_GetStatusReg
                               PROC
 1122 00000000 B510            PUSH             {r4,lr}
 1123 00000002 4604            MOV              r4,r0
 1124 00000004 4621            MOV              r1,r4
 1125 00000006 2027            MOVS             r0,#0x27
 1126 00000008 F7FF FFFE       BL               LIS3DH_ReadReg
 1127 0000000C B908            CBNZ             r0,|L13.18|
 1128 0000000E 2000            MOVS             r0,#0
 1129 00000010         |L13.16|
 1130 00000010 BD10            POP              {r4,pc}
 1131 00000012         |L13.18|
 1132 00000012 2001            MOVS             r0,#1
 1133 00000014 E7FC            B                |L13.16|
 1134 00000016                 ENDP
 1135 00000016         
 1136 00000016         
 1137 00000016                 AREA             ||i.LIS3DH_GetTempRaw||, CODE, 
READONLY, ALIGN=1
 1138 00000000         



ARM Macro Assembler    Page 21 


 1139 00000000         LIS3DH_GetTempRaw
                               PROC
 1140 00000000 B51C            PUSH             {r2-r4,lr}
 1141 00000002 4604            MOV              r4,r0
 1142 00000004 A901            ADD              r1,sp,#4
 1143 00000006 200C            MOVS             r0,#0xc
 1144 00000008 F7FF FFFE       BL               LIS3DH_ReadReg
 1145 0000000C B908            CBNZ             r0,|L14.18|
 1146 0000000E 2000            MOVS             r0,#0
 1147 00000010         |L14.16|
 1148 00000010 BD1C            POP              {r2-r4,pc}
 1149 00000012         |L14.18|
 1150 00000012 4669            MOV              r1,sp
 1151 00000014 200D            MOVS             r0,#0xd
 1152 00000016 F7FF FFFE       BL               LIS3DH_ReadReg
 1153 0000001A B908            CBNZ             r0,|L14.32|
 1154 0000001C 2000            MOVS             r0,#0
 1155 0000001E E7F7            B                |L14.16|
 1156 00000020         |L14.32|
 1157 00000020 F89D 0000       LDRB             r0,[sp,#0]
 1158 00000024 B240            SXTB             r0,r0
 1159 00000026 7020            STRB             r0,[r4,#0]
 1160 00000028 2001            MOVS             r0,#1
 1161 0000002A E7F1            B                |L14.16|
 1162 0000002C                 ENDP
 1163 0000002C         
 1164 0000002C         
 1165 0000002C                 AREA             ||i.LIS3DH_GetWHO_AM_I||, CODE,
 READONLY, ALIGN=1
 1166 00000000         
 1167 00000000         LIS3DH_GetWHO_AM_I
                               PROC
 1168 00000000 B510            PUSH             {r4,lr}
 1169 00000002 4604            MOV              r4,r0
 1170 00000004 4621            MOV              r1,r4
 1171 00000006 200F            MOVS             r0,#0xf
 1172 00000008 F7FF FFFE       BL               LIS3DH_ReadReg
 1173 0000000C B908            CBNZ             r0,|L15.18|
 1174 0000000E 2000            MOVS             r0,#0
 1175 00000010         |L15.16|
 1176 00000010 BD10            POP              {r4,pc}
 1177 00000012         |L15.18|
 1178 00000012 2001            MOVS             r0,#1
 1179 00000014 E7FC            B                |L15.16|
 1180 00000016                 ENDP
 1181 00000016         
 1182 00000016         
 1183 00000016                 AREA             ||i.LIS3DH_HPFAOI1Enable||, COD
E, READONLY, ALIGN=1
 1184 00000000         
 1185 00000000         LIS3DH_HPFAOI1Enable
                               PROC
 1186 00000000 B538            PUSH             {r3-r5,lr}
 1187 00000002 4604            MOV              r4,r0
 1188 00000004 4669            MOV              r1,sp
 1189 00000006 2021            MOVS             r0,#0x21
 1190 00000008 F7FF FFFE       BL               LIS3DH_ReadReg
 1191 0000000C B908            CBNZ             r0,|L16.18|
 1192 0000000E 2000            MOVS             r0,#0



ARM Macro Assembler    Page 22 


 1193 00000010         |L16.16|
 1194 00000010 BD38            POP              {r3-r5,pc}
 1195 00000012         |L16.18|
 1196 00000012 F89D 0000       LDRB             r0,[sp,#0]
 1197 00000016 F000 00FE       AND              r0,r0,#0xfe
 1198 0000001A 9000            STR              r0,[sp,#0]
 1199 0000001C F89D 0000       LDRB             r0,[sp,#0]
 1200 00000020 4320            ORRS             r0,r0,r4
 1201 00000022 9000            STR              r0,[sp,#0]
 1202 00000024 F89D 1000       LDRB             r1,[sp,#0]
 1203 00000028 2021            MOVS             r0,#0x21
 1204 0000002A F7FF FFFE       BL               LIS3DH_WriteReg
 1205 0000002E B908            CBNZ             r0,|L16.52|
 1206 00000030 2000            MOVS             r0,#0
 1207 00000032 E7ED            B                |L16.16|
 1208 00000034         |L16.52|
 1209 00000034 2001            MOVS             r0,#1
 1210 00000036 E7EB            B                |L16.16|
 1211 00000038                 ENDP
 1212 00000038         
 1213 00000038         
 1214 00000038                 AREA             ||i.LIS3DH_HPFAOI2Enable||, COD
E, READONLY, ALIGN=1
 1215 00000000         
 1216 00000000         LIS3DH_HPFAOI2Enable
                               PROC
 1217 00000000 B538            PUSH             {r3-r5,lr}
 1218 00000002 4604            MOV              r4,r0
 1219 00000004 4669            MOV              r1,sp
 1220 00000006 2021            MOVS             r0,#0x21
 1221 00000008 F7FF FFFE       BL               LIS3DH_ReadReg
 1222 0000000C B908            CBNZ             r0,|L17.18|
 1223 0000000E 2000            MOVS             r0,#0
 1224 00000010         |L17.16|
 1225 00000010 BD38            POP              {r3-r5,pc}
 1226 00000012         |L17.18|
 1227 00000012 F89D 0000       LDRB             r0,[sp,#0]
 1228 00000016 F000 00FD       AND              r0,r0,#0xfd
 1229 0000001A 9000            STR              r0,[sp,#0]
 1230 0000001C F89D 0000       LDRB             r0,[sp,#0]
 1231 00000020 EA40 0044       ORR              r0,r0,r4,LSL #1
 1232 00000024 B2C0            UXTB             r0,r0
 1233 00000026 9000            STR              r0,[sp,#0]
 1234 00000028 F89D 1000       LDRB             r1,[sp,#0]
 1235 0000002C 2021            MOVS             r0,#0x21
 1236 0000002E F7FF FFFE       BL               LIS3DH_WriteReg
 1237 00000032 B908            CBNZ             r0,|L17.56|
 1238 00000034 2000            MOVS             r0,#0
 1239 00000036 E7EB            B                |L17.16|
 1240 00000038         |L17.56|
 1241 00000038 2001            MOVS             r0,#1
 1242 0000003A E7E9            B                |L17.16|
 1243 0000003C                 ENDP
 1244 0000003C         
 1245 0000003C         
 1246 0000003C                 AREA             ||i.LIS3DH_HPFClickEnable||, CO
DE, READONLY, ALIGN=1
 1247 00000000         
 1248 00000000         LIS3DH_HPFClickEnable



ARM Macro Assembler    Page 23 


                               PROC
 1249 00000000 B538            PUSH             {r3-r5,lr}
 1250 00000002 4604            MOV              r4,r0
 1251 00000004 4669            MOV              r1,sp
 1252 00000006 2021            MOVS             r0,#0x21
 1253 00000008 F7FF FFFE       BL               LIS3DH_ReadReg
 1254 0000000C B908            CBNZ             r0,|L18.18|
 1255 0000000E 2000            MOVS             r0,#0
 1256 00000010         |L18.16|
 1257 00000010 BD38            POP              {r3-r5,pc}
 1258 00000012         |L18.18|
 1259 00000012 F89D 0000       LDRB             r0,[sp,#0]
 1260 00000016 F000 00FB       AND              r0,r0,#0xfb
 1261 0000001A 9000            STR              r0,[sp,#0]
 1262 0000001C F89D 0000       LDRB             r0,[sp,#0]
 1263 00000020 EA40 0084       ORR              r0,r0,r4,LSL #2
 1264 00000024 B2C0            UXTB             r0,r0
 1265 00000026 9000            STR              r0,[sp,#0]
 1266 00000028 F89D 1000       LDRB             r1,[sp,#0]
 1267 0000002C 2021            MOVS             r0,#0x21
 1268 0000002E F7FF FFFE       BL               LIS3DH_WriteReg
 1269 00000032 B908            CBNZ             r0,|L18.56|
 1270 00000034 2000            MOVS             r0,#0
 1271 00000036 E7EB            B                |L18.16|
 1272 00000038         |L18.56|
 1273 00000038 2001            MOVS             r0,#1
 1274 0000003A E7E9            B                |L18.16|
 1275 0000003C                 ENDP
 1276 0000003C         
 1277 0000003C         
 1278 0000003C                 AREA             ||i.LIS3DH_Int1LatchEnable||, C
ODE, READONLY, ALIGN=1
 1279 00000000         
 1280 00000000         LIS3DH_Int1LatchEnable
                               PROC
 1281 00000000 B538            PUSH             {r3-r5,lr}
 1282 00000002 4604            MOV              r4,r0
 1283 00000004 4669            MOV              r1,sp
 1284 00000006 2024            MOVS             r0,#0x24
 1285 00000008 F7FF FFFE       BL               LIS3DH_ReadReg
 1286 0000000C B908            CBNZ             r0,|L19.18|
 1287 0000000E 2000            MOVS             r0,#0
 1288 00000010         |L19.16|
 1289 00000010 BD38            POP              {r3-r5,pc}
 1290 00000012         |L19.18|
 1291 00000012 F89D 0000       LDRB             r0,[sp,#0]
 1292 00000016 F000 00F7       AND              r0,r0,#0xf7
 1293 0000001A 9000            STR              r0,[sp,#0]
 1294 0000001C F89D 0000       LDRB             r0,[sp,#0]
 1295 00000020 EA40 00C4       ORR              r0,r0,r4,LSL #3
 1296 00000024 B2C0            UXTB             r0,r0
 1297 00000026 9000            STR              r0,[sp,#0]
 1298 00000028 F89D 1000       LDRB             r1,[sp,#0]
 1299 0000002C 2024            MOVS             r0,#0x24
 1300 0000002E F7FF FFFE       BL               LIS3DH_WriteReg
 1301 00000032 B908            CBNZ             r0,|L19.56|
 1302 00000034 2000            MOVS             r0,#0
 1303 00000036 E7EB            B                |L19.16|
 1304 00000038         |L19.56|



ARM Macro Assembler    Page 24 


 1305 00000038 2001            MOVS             r0,#1
 1306 0000003A E7E9            B                |L19.16|
 1307 0000003C                 ENDP
 1308 0000003C         
 1309 0000003C         
 1310 0000003C                 AREA             ||i.LIS3DH_ReadReg||, CODE, REA
DONLY, ALIGN=2
 1311 00000000         
 1312 00000000         LIS3DH_ReadReg
                               PROC
 1313 00000000 B513            PUSH             {r0,r1,r4,lr}
 1314 00000002 B082            SUB              sp,sp,#8
 1315 00000004 460C            MOV              r4,r1
 1316 00000006 F64F 70FF       MOV              r0,#0xffff
 1317 0000000A 2301            MOVS             r3,#1
 1318 0000000C AA01            ADD              r2,sp,#4
 1319 0000000E A902            ADD              r1,sp,#8
 1320 00000010 9000            STR              r0,[sp,#0]
 1321 00000012 4803            LDR              r0,|L20.32|
 1322 00000014 F7FF FFFE       BL               HAL_SPI_TransmitReceive
 1323 00000018 F89D 0004       LDRB             r0,[sp,#4]
 1324 0000001C B004            ADD              sp,sp,#0x10
 1325 0000001E BD10            POP              {r4,pc}
 1326 00000020                 ENDP
 1327 00000020         
 1328 00000020         |L20.32|
 1329 00000020 00000000        DCD              hspi1
 1330 00000024         
 1331 00000024                 AREA             ||i.LIS3DH_ResetInt1Latch||, CO
DE, READONLY, ALIGN=1
 1332 00000000         
 1333 00000000         LIS3DH_ResetInt1Latch
                               PROC
 1334 00000000 B508            PUSH             {r3,lr}
 1335 00000002 4669            MOV              r1,sp
 1336 00000004 2031            MOVS             r0,#0x31
 1337 00000006 F7FF FFFE       BL               LIS3DH_ReadReg
 1338 0000000A B908            CBNZ             r0,|L21.16|
 1339 0000000C 2000            MOVS             r0,#0
 1340 0000000E         |L21.14|
 1341 0000000E BD08            POP              {r3,pc}
 1342 00000010         |L21.16|
 1343 00000010 2001            MOVS             r0,#1
 1344 00000012 E7FC            B                |L21.14|
 1345 00000014                 ENDP
 1346 00000014         
 1347 00000014         
 1348 00000014                 AREA             ||i.LIS3DH_SetADCAux||, CODE, R
EADONLY, ALIGN=1
 1349 00000000         
 1350 00000000         LIS3DH_SetADCAux
                               PROC
 1351 00000000 B538            PUSH             {r3-r5,lr}
 1352 00000002 4604            MOV              r4,r0
 1353 00000004 4669            MOV              r1,sp
 1354 00000006 201F            MOVS             r0,#0x1f
 1355 00000008 F7FF FFFE       BL               LIS3DH_ReadReg
 1356 0000000C B908            CBNZ             r0,|L22.18|
 1357 0000000E 2000            MOVS             r0,#0



ARM Macro Assembler    Page 25 


 1358 00000010         |L22.16|
 1359 00000010 BD38            POP              {r3-r5,pc}
 1360 00000012         |L22.18|
 1361 00000012 F89D 0000       LDRB             r0,[sp,#0]
 1362 00000016 F000 007F       AND              r0,r0,#0x7f
 1363 0000001A 9000            STR              r0,[sp,#0]
 1364 0000001C F89D 0000       LDRB             r0,[sp,#0]
 1365 00000020 EA40 10C4       ORR              r0,r0,r4,LSL #7
 1366 00000024 B2C0            UXTB             r0,r0
 1367 00000026 9000            STR              r0,[sp,#0]
 1368 00000028 F89D 1000       LDRB             r1,[sp,#0]
 1369 0000002C 201F            MOVS             r0,#0x1f
 1370 0000002E F7FF FFFE       BL               LIS3DH_WriteReg
 1371 00000032 B908            CBNZ             r0,|L22.56|
 1372 00000034 2000            MOVS             r0,#0
 1373 00000036 E7EB            B                |L22.16|
 1374 00000038         |L22.56|
 1375 00000038 2001            MOVS             r0,#1
 1376 0000003A E7E9            B                |L22.16|
 1377 0000003C                 ENDP
 1378 0000003C         
 1379 0000003C         
 1380 0000003C                 AREA             ||i.LIS3DH_SetAxis||, CODE, REA
DONLY, ALIGN=1
 1381 00000000         
 1382 00000000         LIS3DH_SetAxis
                               PROC
 1383 00000000 B538            PUSH             {r3-r5,lr}
 1384 00000002 4604            MOV              r4,r0
 1385 00000004 4669            MOV              r1,sp
 1386 00000006 2020            MOVS             r0,#0x20
 1387 00000008 F7FF FFFE       BL               LIS3DH_ReadReg
 1388 0000000C B908            CBNZ             r0,|L23.18|
 1389 0000000E 2000            MOVS             r0,#0
 1390 00000010         |L23.16|
 1391 00000010 BD38            POP              {r3-r5,pc}
 1392 00000012         |L23.18|
 1393 00000012 F89D 0000       LDRB             r0,[sp,#0]
 1394 00000016 F000 00F8       AND              r0,r0,#0xf8
 1395 0000001A 9000            STR              r0,[sp,#0]
 1396 0000001C F004 0007       AND              r0,r4,#7
 1397 00000020 F89D 1000       LDRB             r1,[sp,#0]
 1398 00000024 4308            ORRS             r0,r0,r1
 1399 00000026 9000            STR              r0,[sp,#0]
 1400 00000028 F89D 1000       LDRB             r1,[sp,#0]
 1401 0000002C 2020            MOVS             r0,#0x20
 1402 0000002E F7FF FFFE       BL               LIS3DH_WriteReg
 1403 00000032 B908            CBNZ             r0,|L23.56|
 1404 00000034 2000            MOVS             r0,#0
 1405 00000036 E7EB            B                |L23.16|
 1406 00000038         |L23.56|
 1407 00000038 2001            MOVS             r0,#1
 1408 0000003A E7E9            B                |L23.16|
 1409 0000003C                 ENDP
 1410 0000003C         
 1411 0000003C         
 1412 0000003C                 AREA             ||i.LIS3DH_SetBDU||, CODE, READ
ONLY, ALIGN=1
 1413 00000000         



ARM Macro Assembler    Page 26 


 1414 00000000         LIS3DH_SetBDU
                               PROC
 1415 00000000 B538            PUSH             {r3-r5,lr}
 1416 00000002 4604            MOV              r4,r0
 1417 00000004 4669            MOV              r1,sp
 1418 00000006 2023            MOVS             r0,#0x23
 1419 00000008 F7FF FFFE       BL               LIS3DH_ReadReg
 1420 0000000C B908            CBNZ             r0,|L24.18|
 1421 0000000E 2000            MOVS             r0,#0
 1422 00000010         |L24.16|
 1423 00000010 BD38            POP              {r3-r5,pc}
 1424 00000012         |L24.18|
 1425 00000012 F89D 0000       LDRB             r0,[sp,#0]
 1426 00000016 F000 007F       AND              r0,r0,#0x7f
 1427 0000001A 9000            STR              r0,[sp,#0]
 1428 0000001C F89D 0000       LDRB             r0,[sp,#0]
 1429 00000020 EA40 10C4       ORR              r0,r0,r4,LSL #7
 1430 00000024 B2C0            UXTB             r0,r0
 1431 00000026 9000            STR              r0,[sp,#0]
 1432 00000028 F89D 1000       LDRB             r1,[sp,#0]
 1433 0000002C 2023            MOVS             r0,#0x23
 1434 0000002E F7FF FFFE       BL               LIS3DH_WriteReg
 1435 00000032 B908            CBNZ             r0,|L24.56|
 1436 00000034 2000            MOVS             r0,#0
 1437 00000036 E7EB            B                |L24.16|
 1438 00000038         |L24.56|
 1439 00000038 2001            MOVS             r0,#1
 1440 0000003A E7E9            B                |L24.16|
 1441 0000003C                 ENDP
 1442 0000003C         
 1443 0000003C         
 1444 0000003C                 AREA             ||i.LIS3DH_SetBLE||, CODE, READ
ONLY, ALIGN=1
 1445 00000000         
 1446 00000000         LIS3DH_SetBLE
                               PROC
 1447 00000000 B538            PUSH             {r3-r5,lr}
 1448 00000002 4604            MOV              r4,r0
 1449 00000004 4669            MOV              r1,sp
 1450 00000006 2023            MOVS             r0,#0x23
 1451 00000008 F7FF FFFE       BL               LIS3DH_ReadReg
 1452 0000000C B908            CBNZ             r0,|L25.18|
 1453 0000000E 2000            MOVS             r0,#0
 1454 00000010         |L25.16|
 1455 00000010 BD38            POP              {r3-r5,pc}
 1456 00000012         |L25.18|
 1457 00000012 F89D 0000       LDRB             r0,[sp,#0]
 1458 00000016 F000 00BF       AND              r0,r0,#0xbf
 1459 0000001A 9000            STR              r0,[sp,#0]
 1460 0000001C F89D 0000       LDRB             r0,[sp,#0]
 1461 00000020 EA40 1084       ORR              r0,r0,r4,LSL #6
 1462 00000024 B2C0            UXTB             r0,r0
 1463 00000026 9000            STR              r0,[sp,#0]
 1464 00000028 F89D 1000       LDRB             r1,[sp,#0]
 1465 0000002C 2023            MOVS             r0,#0x23
 1466 0000002E F7FF FFFE       BL               LIS3DH_WriteReg
 1467 00000032 B908            CBNZ             r0,|L25.56|
 1468 00000034 2000            MOVS             r0,#0
 1469 00000036 E7EB            B                |L25.16|



ARM Macro Assembler    Page 27 


 1470 00000038         |L25.56|
 1471 00000038 2001            MOVS             r0,#1
 1472 0000003A E7E9            B                |L25.16|
 1473 0000003C                 ENDP
 1474 0000003C         
 1475 0000003C         
 1476 0000003C                 AREA             ||i.LIS3DH_SetClickCFG||, CODE,
 READONLY, ALIGN=1
 1477 00000000         
 1478 00000000         LIS3DH_SetClickCFG
                               PROC
 1479 00000000 B538            PUSH             {r3-r5,lr}
 1480 00000002 4604            MOV              r4,r0
 1481 00000004 4669            MOV              r1,sp
 1482 00000006 2038            MOVS             r0,#0x38
 1483 00000008 F7FF FFFE       BL               LIS3DH_ReadReg
 1484 0000000C B908            CBNZ             r0,|L26.18|
 1485 0000000E 2000            MOVS             r0,#0
 1486 00000010         |L26.16|
 1487 00000010 BD38            POP              {r3-r5,pc}
 1488 00000012         |L26.18|
 1489 00000012 F89D 0000       LDRB             r0,[sp,#0]
 1490 00000016 F000 00C0       AND              r0,r0,#0xc0
 1491 0000001A 9000            STR              r0,[sp,#0]
 1492 0000001C F89D 0000       LDRB             r0,[sp,#0]
 1493 00000020 4320            ORRS             r0,r0,r4
 1494 00000022 9000            STR              r0,[sp,#0]
 1495 00000024 F89D 1000       LDRB             r1,[sp,#0]
 1496 00000028 2038            MOVS             r0,#0x38
 1497 0000002A F7FF FFFE       BL               LIS3DH_WriteReg
 1498 0000002E B908            CBNZ             r0,|L26.52|
 1499 00000030 2000            MOVS             r0,#0
 1500 00000032 E7ED            B                |L26.16|
 1501 00000034         |L26.52|
 1502 00000034 2001            MOVS             r0,#1
 1503 00000036 E7EB            B                |L26.16|
 1504 00000038                 ENDP
 1505 00000038         
 1506 00000038         
 1507 00000038                 AREA             ||i.LIS3DH_SetClickLATENCY||, C
ODE, READONLY, ALIGN=1
 1508 00000000         
 1509 00000000         LIS3DH_SetClickLATENCY
                               PROC
 1510 00000000 B500            PUSH             {lr}
 1511 00000002 4603            MOV              r3,r0
 1512 00000004 4619            MOV              r1,r3
 1513 00000006 203C            MOVS             r0,#0x3c
 1514 00000008 F7FF FFFE       BL               LIS3DH_WriteReg
 1515 0000000C B908            CBNZ             r0,|L27.18|
 1516 0000000E 2000            MOVS             r0,#0
 1517 00000010         |L27.16|
 1518 00000010 BD00            POP              {pc}
 1519 00000012         |L27.18|
 1520 00000012 2001            MOVS             r0,#1
 1521 00000014 E7FC            B                |L27.16|
 1522 00000016                 ENDP
 1523 00000016         
 1524 00000016         



ARM Macro Assembler    Page 28 


 1525 00000016                 AREA             ||i.LIS3DH_SetClickLIMIT||, COD
E, READONLY, ALIGN=1
 1526 00000000         
 1527 00000000         LIS3DH_SetClickLIMIT
                               PROC
 1528 00000000 B500            PUSH             {lr}
 1529 00000002 4603            MOV              r3,r0
 1530 00000004 2B7F            CMP              r3,#0x7f
 1531 00000006 DD01            BLE              |L28.12|
 1532 00000008 2000            MOVS             r0,#0
 1533 0000000A         |L28.10|
 1534 0000000A BD00            POP              {pc}
 1535 0000000C         |L28.12|
 1536 0000000C 4619            MOV              r1,r3
 1537 0000000E 203B            MOVS             r0,#0x3b
 1538 00000010 F7FF FFFE       BL               LIS3DH_WriteReg
 1539 00000014 B908            CBNZ             r0,|L28.26|
 1540 00000016 2000            MOVS             r0,#0
 1541 00000018 E7F7            B                |L28.10|
 1542 0000001A         |L28.26|
 1543 0000001A 2001            MOVS             r0,#1
 1544 0000001C E7F5            B                |L28.10|
 1545 0000001E                 ENDP
 1546 0000001E         
 1547 0000001E         
 1548 0000001E                 AREA             ||i.LIS3DH_SetClickTHS||, CODE,
 READONLY, ALIGN=1
 1549 00000000         
 1550 00000000         LIS3DH_SetClickTHS
                               PROC
 1551 00000000 B500            PUSH             {lr}
 1552 00000002 4603            MOV              r3,r0
 1553 00000004 2B7F            CMP              r3,#0x7f
 1554 00000006 DD01            BLE              |L29.12|
 1555 00000008 2000            MOVS             r0,#0
 1556 0000000A         |L29.10|
 1557 0000000A BD00            POP              {pc}
 1558 0000000C         |L29.12|
 1559 0000000C 4619            MOV              r1,r3
 1560 0000000E 203A            MOVS             r0,#0x3a
 1561 00000010 F7FF FFFE       BL               LIS3DH_WriteReg
 1562 00000014 B908            CBNZ             r0,|L29.26|
 1563 00000016 2000            MOVS             r0,#0
 1564 00000018 E7F7            B                |L29.10|
 1565 0000001A         |L29.26|
 1566 0000001A 2001            MOVS             r0,#1
 1567 0000001C E7F5            B                |L29.10|
 1568 0000001E                 ENDP
 1569 0000001E         
 1570 0000001E         
 1571 0000001E                 AREA             ||i.LIS3DH_SetClickWINDOW||, CO
DE, READONLY, ALIGN=1
 1572 00000000         
 1573 00000000         LIS3DH_SetClickWINDOW
                               PROC
 1574 00000000 B500            PUSH             {lr}
 1575 00000002 4603            MOV              r3,r0
 1576 00000004 4619            MOV              r1,r3
 1577 00000006 203D            MOVS             r0,#0x3d



ARM Macro Assembler    Page 29 


 1578 00000008 F7FF FFFE       BL               LIS3DH_WriteReg
 1579 0000000C B908            CBNZ             r0,|L30.18|
 1580 0000000E 2000            MOVS             r0,#0
 1581 00000010         |L30.16|
 1582 00000010 BD00            POP              {pc}
 1583 00000012         |L30.18|
 1584 00000012 2001            MOVS             r0,#1
 1585 00000014 E7FC            B                |L30.16|
 1586 00000016                 ENDP
 1587 00000016         
 1588 00000016         
 1589 00000016                 AREA             ||i.LIS3DH_SetFilterDataSel||, 
CODE, READONLY, ALIGN=1
 1590 00000000         
 1591 00000000         LIS3DH_SetFilterDataSel
                               PROC
 1592 00000000 B538            PUSH             {r3-r5,lr}
 1593 00000002 4604            MOV              r4,r0
 1594 00000004 4669            MOV              r1,sp
 1595 00000006 2021            MOVS             r0,#0x21
 1596 00000008 F7FF FFFE       BL               LIS3DH_ReadReg
 1597 0000000C B908            CBNZ             r0,|L31.18|
 1598 0000000E 2000            MOVS             r0,#0
 1599 00000010         |L31.16|
 1600 00000010 BD38            POP              {r3-r5,pc}
 1601 00000012         |L31.18|
 1602 00000012 F89D 0000       LDRB             r0,[sp,#0]
 1603 00000016 F000 00F7       AND              r0,r0,#0xf7
 1604 0000001A 9000            STR              r0,[sp,#0]
 1605 0000001C F89D 0000       LDRB             r0,[sp,#0]
 1606 00000020 EA40 00C4       ORR              r0,r0,r4,LSL #3
 1607 00000024 B2C0            UXTB             r0,r0
 1608 00000026 9000            STR              r0,[sp,#0]
 1609 00000028 F89D 1000       LDRB             r1,[sp,#0]
 1610 0000002C 2021            MOVS             r0,#0x21
 1611 0000002E F7FF FFFE       BL               LIS3DH_WriteReg
 1612 00000032 B908            CBNZ             r0,|L31.56|
 1613 00000034 2000            MOVS             r0,#0
 1614 00000036 E7EB            B                |L31.16|
 1615 00000038         |L31.56|
 1616 00000038 2001            MOVS             r0,#1
 1617 0000003A E7E9            B                |L31.16|
 1618 0000003C                 ENDP
 1619 0000003C         
 1620 0000003C         
 1621 0000003C                 AREA             ||i.LIS3DH_SetFullScale||, CODE
, READONLY, ALIGN=1
 1622 00000000         
 1623 00000000         LIS3DH_SetFullScale
                               PROC
 1624 00000000 B538            PUSH             {r3-r5,lr}
 1625 00000002 4604            MOV              r4,r0
 1626 00000004 4669            MOV              r1,sp
 1627 00000006 2023            MOVS             r0,#0x23
 1628 00000008 F7FF FFFE       BL               LIS3DH_ReadReg
 1629 0000000C B908            CBNZ             r0,|L32.18|
 1630 0000000E 2000            MOVS             r0,#0
 1631 00000010         |L32.16|
 1632 00000010 BD38            POP              {r3-r5,pc}



ARM Macro Assembler    Page 30 


 1633 00000012         |L32.18|
 1634 00000012 F89D 0000       LDRB             r0,[sp,#0]
 1635 00000016 F000 00CF       AND              r0,r0,#0xcf
 1636 0000001A 9000            STR              r0,[sp,#0]
 1637 0000001C F89D 0000       LDRB             r0,[sp,#0]
 1638 00000020 EA40 1004       ORR              r0,r0,r4,LSL #4
 1639 00000024 B2C0            UXTB             r0,r0
 1640 00000026 9000            STR              r0,[sp,#0]
 1641 00000028 F89D 1000       LDRB             r1,[sp,#0]
 1642 0000002C 2023            MOVS             r0,#0x23
 1643 0000002E F7FF FFFE       BL               LIS3DH_WriteReg
 1644 00000032 B908            CBNZ             r0,|L32.56|
 1645 00000034 2000            MOVS             r0,#0
 1646 00000036 E7EB            B                |L32.16|
 1647 00000038         |L32.56|
 1648 00000038 2001            MOVS             r0,#1
 1649 0000003A E7E9            B                |L32.16|
 1650 0000003C                 ENDP
 1651 0000003C         
 1652 0000003C         
 1653 0000003C                 AREA             ||i.LIS3DH_SetHPFCutOFF||, CODE
, READONLY, ALIGN=1
 1654 00000000         
 1655 00000000         LIS3DH_SetHPFCutOFF
                               PROC
 1656 00000000 B538            PUSH             {r3-r5,lr}
 1657 00000002 4604            MOV              r4,r0
 1658 00000004 2C03            CMP              r4,#3
 1659 00000006 DD01            BLE              |L33.12|
 1660 00000008 2000            MOVS             r0,#0
 1661 0000000A         |L33.10|
 1662 0000000A BD38            POP              {r3-r5,pc}
 1663 0000000C         |L33.12|
 1664 0000000C 4669            MOV              r1,sp
 1665 0000000E 2021            MOVS             r0,#0x21
 1666 00000010 F7FF FFFE       BL               LIS3DH_ReadReg
 1667 00000014 B908            CBNZ             r0,|L33.26|
 1668 00000016 2000            MOVS             r0,#0
 1669 00000018 E7F7            B                |L33.10|
 1670 0000001A         |L33.26|
 1671 0000001A F89D 0000       LDRB             r0,[sp,#0]
 1672 0000001E F000 00CF       AND              r0,r0,#0xcf
 1673 00000022 9000            STR              r0,[sp,#0]
 1674 00000024 F89D 0000       LDRB             r0,[sp,#0]
 1675 00000028 EA40 1004       ORR              r0,r0,r4,LSL #4
 1676 0000002C B2C0            UXTB             r0,r0
 1677 0000002E 9000            STR              r0,[sp,#0]
 1678 00000030 F89D 1000       LDRB             r1,[sp,#0]
 1679 00000034 2021            MOVS             r0,#0x21
 1680 00000036 F7FF FFFE       BL               LIS3DH_WriteReg
 1681 0000003A B908            CBNZ             r0,|L33.64|
 1682 0000003C 2000            MOVS             r0,#0
 1683 0000003E E7E4            B                |L33.10|
 1684 00000040         |L33.64|
 1685 00000040 2001            MOVS             r0,#1
 1686 00000042 E7E2            B                |L33.10|
 1687 00000044                 ENDP
 1688 00000044         
 1689 00000044         



ARM Macro Assembler    Page 31 


 1690 00000044                 AREA             ||i.LIS3DH_SetHPFMode||, CODE, 
READONLY, ALIGN=1
 1691 00000000         
 1692 00000000         LIS3DH_SetHPFMode
                               PROC
 1693 00000000 B538            PUSH             {r3-r5,lr}
 1694 00000002 4604            MOV              r4,r0
 1695 00000004 4669            MOV              r1,sp
 1696 00000006 2021            MOVS             r0,#0x21
 1697 00000008 F7FF FFFE       BL               LIS3DH_ReadReg
 1698 0000000C B908            CBNZ             r0,|L34.18|
 1699 0000000E 2000            MOVS             r0,#0
 1700 00000010         |L34.16|
 1701 00000010 BD38            POP              {r3-r5,pc}
 1702 00000012         |L34.18|
 1703 00000012 F89D 0000       LDRB             r0,[sp,#0]
 1704 00000016 F000 003F       AND              r0,r0,#0x3f
 1705 0000001A 9000            STR              r0,[sp,#0]
 1706 0000001C F89D 0000       LDRB             r0,[sp,#0]
 1707 00000020 EA40 1084       ORR              r0,r0,r4,LSL #6
 1708 00000024 B2C0            UXTB             r0,r0
 1709 00000026 9000            STR              r0,[sp,#0]
 1710 00000028 F89D 1000       LDRB             r1,[sp,#0]
 1711 0000002C 2021            MOVS             r0,#0x21
 1712 0000002E F7FF FFFE       BL               LIS3DH_WriteReg
 1713 00000032 B908            CBNZ             r0,|L34.56|
 1714 00000034 2000            MOVS             r0,#0
 1715 00000036 E7EB            B                |L34.16|
 1716 00000038         |L34.56|
 1717 00000038 2001            MOVS             r0,#1
 1718 0000003A E7E9            B                |L34.16|
 1719 0000003C                 ENDP
 1720 0000003C         
 1721 0000003C         
 1722 0000003C                 AREA             ||i.LIS3DH_SetInt1Duration||, C
ODE, READONLY, ALIGN=1
 1723 00000000         
 1724 00000000         LIS3DH_SetInt1Duration
                               PROC
 1725 00000000 B500            PUSH             {lr}
 1726 00000002 4603            MOV              r3,r0
 1727 00000004 2B7F            CMP              r3,#0x7f
 1728 00000006 DD01            BLE              |L35.12|
 1729 00000008 2000            MOVS             r0,#0
 1730 0000000A         |L35.10|
 1731 0000000A BD00            POP              {pc}
 1732 0000000C         |L35.12|
 1733 0000000C 4619            MOV              r1,r3
 1734 0000000E 2033            MOVS             r0,#0x33
 1735 00000010 F7FF FFFE       BL               LIS3DH_WriteReg
 1736 00000014 B908            CBNZ             r0,|L35.26|
 1737 00000016 2000            MOVS             r0,#0
 1738 00000018 E7F7            B                |L35.10|
 1739 0000001A         |L35.26|
 1740 0000001A 2001            MOVS             r0,#1
 1741 0000001C E7F5            B                |L35.10|
 1742 0000001E                 ENDP
 1743 0000001E         
 1744 0000001E         



ARM Macro Assembler    Page 32 


 1745 0000001E                 AREA             ||i.LIS3DH_SetInt1Pin||, CODE, 
READONLY, ALIGN=1
 1746 00000000         
 1747 00000000         LIS3DH_SetInt1Pin
                               PROC
 1748 00000000 B538            PUSH             {r3-r5,lr}
 1749 00000002 4604            MOV              r4,r0
 1750 00000004 4669            MOV              r1,sp
 1751 00000006 2022            MOVS             r0,#0x22
 1752 00000008 F7FF FFFE       BL               LIS3DH_ReadReg
 1753 0000000C B908            CBNZ             r0,|L36.18|
 1754 0000000E 2000            MOVS             r0,#0
 1755 00000010         |L36.16|
 1756 00000010 BD38            POP              {r3-r5,pc}
 1757 00000012         |L36.18|
 1758 00000012 2000            MOVS             r0,#0
 1759 00000014 9000            STR              r0,[sp,#0]
 1760 00000016 F89D 0000       LDRB             r0,[sp,#0]
 1761 0000001A 4320            ORRS             r0,r0,r4
 1762 0000001C 9000            STR              r0,[sp,#0]
 1763 0000001E F89D 1000       LDRB             r1,[sp,#0]
 1764 00000022 2022            MOVS             r0,#0x22
 1765 00000024 F7FF FFFE       BL               LIS3DH_WriteReg
 1766 00000028 B908            CBNZ             r0,|L36.46|
 1767 0000002A 2000            MOVS             r0,#0
 1768 0000002C E7F0            B                |L36.16|
 1769 0000002E         |L36.46|
 1770 0000002E 2001            MOVS             r0,#1
 1771 00000030 E7EE            B                |L36.16|
 1772 00000032                 ENDP
 1773 00000032         
 1774 00000032         
 1775 00000032                 AREA             ||i.LIS3DH_SetInt1Threshold||, 
CODE, READONLY, ALIGN=1
 1776 00000000         
 1777 00000000         LIS3DH_SetInt1Threshold
                               PROC
 1778 00000000 B500            PUSH             {lr}
 1779 00000002 4603            MOV              r3,r0
 1780 00000004 2B7F            CMP              r3,#0x7f
 1781 00000006 DD01            BLE              |L37.12|
 1782 00000008 2000            MOVS             r0,#0
 1783 0000000A         |L37.10|
 1784 0000000A BD00            POP              {pc}
 1785 0000000C         |L37.12|
 1786 0000000C 4619            MOV              r1,r3
 1787 0000000E 2032            MOVS             r0,#0x32
 1788 00000010 F7FF FFFE       BL               LIS3DH_WriteReg
 1789 00000014 B908            CBNZ             r0,|L37.26|
 1790 00000016 2000            MOVS             r0,#0
 1791 00000018 E7F7            B                |L37.10|
 1792 0000001A         |L37.26|
 1793 0000001A 2001            MOVS             r0,#1
 1794 0000001C E7F5            B                |L37.10|
 1795 0000001E                 ENDP
 1796 0000001E         
 1797 0000001E         
 1798 0000001E                 AREA             ||i.LIS3DH_SetInt2Pin||, CODE, 
READONLY, ALIGN=1



ARM Macro Assembler    Page 33 


 1799 00000000         
 1800 00000000         LIS3DH_SetInt2Pin
                               PROC
 1801 00000000 B538            PUSH             {r3-r5,lr}
 1802 00000002 4604            MOV              r4,r0
 1803 00000004 4669            MOV              r1,sp
 1804 00000006 2025            MOVS             r0,#0x25
 1805 00000008 F7FF FFFE       BL               LIS3DH_ReadReg
 1806 0000000C B908            CBNZ             r0,|L38.18|
 1807 0000000E 2000            MOVS             r0,#0
 1808 00000010         |L38.16|
 1809 00000010 BD38            POP              {r3-r5,pc}
 1810 00000012         |L38.18|
 1811 00000012 2000            MOVS             r0,#0
 1812 00000014 9000            STR              r0,[sp,#0]
 1813 00000016 F89D 0000       LDRB             r0,[sp,#0]
 1814 0000001A 4320            ORRS             r0,r0,r4
 1815 0000001C 9000            STR              r0,[sp,#0]
 1816 0000001E F89D 1000       LDRB             r1,[sp,#0]
 1817 00000022 2025            MOVS             r0,#0x25
 1818 00000024 F7FF FFFE       BL               LIS3DH_WriteReg
 1819 00000028 B908            CBNZ             r0,|L38.46|
 1820 0000002A 2000            MOVS             r0,#0
 1821 0000002C E7F0            B                |L38.16|
 1822 0000002E         |L38.46|
 1823 0000002E 2001            MOVS             r0,#1
 1824 00000030 E7EE            B                |L38.16|
 1825 00000032                 ENDP
 1826 00000032         
 1827 00000032         
 1828 00000032                 AREA             ||i.LIS3DH_SetInt6D4DConfigurat
ion||, CODE, READONLY, ALIGN=1
 1829 00000000         
 1830 00000000         LIS3DH_SetInt6D4DConfiguration
                               PROC
 1831 00000000 B51C            PUSH             {r2-r4,lr}
 1832 00000002 4604            MOV              r4,r0
 1833 00000004 A901            ADD              r1,sp,#4
 1834 00000006 2030            MOVS             r0,#0x30
 1835 00000008 F7FF FFFE       BL               LIS3DH_ReadReg
 1836 0000000C B908            CBNZ             r0,|L39.18|
 1837 0000000E 2000            MOVS             r0,#0
 1838 00000010         |L39.16|
 1839 00000010 BD1C            POP              {r2-r4,pc}
 1840 00000012         |L39.18|
 1841 00000012 4669            MOV              r1,sp
 1842 00000014 2024            MOVS             r0,#0x24
 1843 00000016 F7FF FFFE       BL               LIS3DH_ReadReg
 1844 0000001A B908            CBNZ             r0,|L39.32|
 1845 0000001C 2000            MOVS             r0,#0
 1846 0000001E E7F7            B                |L39.16|
 1847 00000020         |L39.32|
 1848 00000020 2C01            CMP              r4,#1
 1849 00000022 D111            BNE              |L39.72|
 1850 00000024 F89D 0004       LDRB             r0,[sp,#4]
 1851 00000028 F000 00BF       AND              r0,r0,#0xbf
 1852 0000002C 9001            STR              r0,[sp,#4]
 1853 0000002E F89D 0004       LDRB             r0,[sp,#4]
 1854 00000032 F040 0040       ORR              r0,r0,#0x40



ARM Macro Assembler    Page 34 


 1855 00000036 9001            STR              r0,[sp,#4]
 1856 00000038 F89D 0000       LDRB             r0,[sp,#0]
 1857 0000003C F000 00FB       AND              r0,r0,#0xfb
 1858 00000040 9000            STR              r0,[sp,#0]
 1859 00000042 F89D 0000       LDRB             r0,[sp,#0]
 1860 00000046 9000            STR              r0,[sp,#0]
 1861 00000048         |L39.72|
 1862 00000048 2C02            CMP              r4,#2
 1863 0000004A D113            BNE              |L39.116|
 1864 0000004C F89D 0004       LDRB             r0,[sp,#4]
 1865 00000050 F000 00BF       AND              r0,r0,#0xbf
 1866 00000054 9001            STR              r0,[sp,#4]
 1867 00000056 F89D 0004       LDRB             r0,[sp,#4]
 1868 0000005A F040 0040       ORR              r0,r0,#0x40
 1869 0000005E 9001            STR              r0,[sp,#4]
 1870 00000060 F89D 0000       LDRB             r0,[sp,#0]
 1871 00000064 F000 00FB       AND              r0,r0,#0xfb
 1872 00000068 9000            STR              r0,[sp,#0]
 1873 0000006A F89D 0000       LDRB             r0,[sp,#0]
 1874 0000006E F040 0004       ORR              r0,r0,#4
 1875 00000072 9000            STR              r0,[sp,#0]
 1876 00000074         |L39.116|
 1877 00000074 B97C            CBNZ             r4,|L39.150|
 1878 00000076 F89D 0004       LDRB             r0,[sp,#4]
 1879 0000007A F000 00BF       AND              r0,r0,#0xbf
 1880 0000007E 9001            STR              r0,[sp,#4]
 1881 00000080 F89D 0004       LDRB             r0,[sp,#4]
 1882 00000084 9001            STR              r0,[sp,#4]
 1883 00000086 F89D 0000       LDRB             r0,[sp,#0]
 1884 0000008A F000 00FB       AND              r0,r0,#0xfb
 1885 0000008E 9000            STR              r0,[sp,#0]
 1886 00000090 F89D 0000       LDRB             r0,[sp,#0]
 1887 00000094 9000            STR              r0,[sp,#0]
 1888 00000096         |L39.150|
 1889 00000096 F89D 1004       LDRB             r1,[sp,#4]
 1890 0000009A 2030            MOVS             r0,#0x30
 1891 0000009C F7FF FFFE       BL               LIS3DH_WriteReg
 1892 000000A0 B908            CBNZ             r0,|L39.166|
 1893 000000A2 2000            MOVS             r0,#0
 1894 000000A4 E7B4            B                |L39.16|
 1895 000000A6         |L39.166|
 1896 000000A6 F89D 1000       LDRB             r1,[sp,#0]
 1897 000000AA 2024            MOVS             r0,#0x24
 1898 000000AC F7FF FFFE       BL               LIS3DH_WriteReg
 1899 000000B0 B908            CBNZ             r0,|L39.182|
 1900 000000B2 2000            MOVS             r0,#0
 1901 000000B4 E7AC            B                |L39.16|
 1902 000000B6         |L39.182|
 1903 000000B6 2001            MOVS             r0,#1
 1904 000000B8 E7AA            B                |L39.16|
 1905 000000BA                 ENDP
 1906 000000BA         
 1907 000000BA         
 1908 000000BA                 AREA             ||i.LIS3DH_SetIntConfiguration|
|, CODE, READONLY, ALIGN=1
 1909 00000000         
 1910 00000000         LIS3DH_SetIntConfiguration
                               PROC
 1911 00000000 B538            PUSH             {r3-r5,lr}



ARM Macro Assembler    Page 35 


 1912 00000002 4604            MOV              r4,r0
 1913 00000004 4669            MOV              r1,sp
 1914 00000006 2030            MOVS             r0,#0x30
 1915 00000008 F7FF FFFE       BL               LIS3DH_ReadReg
 1916 0000000C B908            CBNZ             r0,|L40.18|
 1917 0000000E 2000            MOVS             r0,#0
 1918 00000010         |L40.16|
 1919 00000010 BD38            POP              {r3-r5,pc}
 1920 00000012         |L40.18|
 1921 00000012 F89D 0000       LDRB             r0,[sp,#0]
 1922 00000016 F000 0040       AND              r0,r0,#0x40
 1923 0000001A 9000            STR              r0,[sp,#0]
 1924 0000001C F89D 0000       LDRB             r0,[sp,#0]
 1925 00000020 4320            ORRS             r0,r0,r4
 1926 00000022 9000            STR              r0,[sp,#0]
 1927 00000024 F89D 1000       LDRB             r1,[sp,#0]
 1928 00000028 2030            MOVS             r0,#0x30
 1929 0000002A F7FF FFFE       BL               LIS3DH_WriteReg
 1930 0000002E B908            CBNZ             r0,|L40.52|
 1931 00000030 2000            MOVS             r0,#0
 1932 00000032 E7ED            B                |L40.16|
 1933 00000034         |L40.52|
 1934 00000034 2001            MOVS             r0,#1
 1935 00000036 E7EB            B                |L40.16|
 1936 00000038                 ENDP
 1937 00000038         
 1938 00000038         
 1939 00000038                 AREA             ||i.LIS3DH_SetIntMode||, CODE, 
READONLY, ALIGN=1
 1940 00000000         
 1941 00000000         LIS3DH_SetIntMode
                               PROC
 1942 00000000 B538            PUSH             {r3-r5,lr}
 1943 00000002 4604            MOV              r4,r0
 1944 00000004 4669            MOV              r1,sp
 1945 00000006 2030            MOVS             r0,#0x30
 1946 00000008 F7FF FFFE       BL               LIS3DH_ReadReg
 1947 0000000C B908            CBNZ             r0,|L41.18|
 1948 0000000E 2000            MOVS             r0,#0
 1949 00000010         |L41.16|
 1950 00000010 BD38            POP              {r3-r5,pc}
 1951 00000012         |L41.18|
 1952 00000012 F89D 0000       LDRB             r0,[sp,#0]
 1953 00000016 F000 003F       AND              r0,r0,#0x3f
 1954 0000001A 9000            STR              r0,[sp,#0]
 1955 0000001C F89D 0000       LDRB             r0,[sp,#0]
 1956 00000020 EA40 1084       ORR              r0,r0,r4,LSL #6
 1957 00000024 B2C0            UXTB             r0,r0
 1958 00000026 9000            STR              r0,[sp,#0]
 1959 00000028 F89D 1000       LDRB             r1,[sp,#0]
 1960 0000002C 2030            MOVS             r0,#0x30
 1961 0000002E F7FF FFFE       BL               LIS3DH_WriteReg
 1962 00000032 B908            CBNZ             r0,|L41.56|
 1963 00000034 2000            MOVS             r0,#0
 1964 00000036 E7EB            B                |L41.16|
 1965 00000038         |L41.56|
 1966 00000038 2001            MOVS             r0,#1
 1967 0000003A E7E9            B                |L41.16|
 1968 0000003C                 ENDP



ARM Macro Assembler    Page 36 


 1969 0000003C         
 1970 0000003C         
 1971 0000003C                 AREA             ||i.LIS3DH_SetMode||, CODE, REA
DONLY, ALIGN=2
 1972 00000000         
 1973 00000000         LIS3DH_SetMode
                               PROC
 1974 00000000 B51C            PUSH             {r2-r4,lr}
 1975 00000002 4604            MOV              r4,r0
 1976 00000004 A901            ADD              r1,sp,#4
 1977 00000006 2020            MOVS             r0,#0x20
 1978 00000008 F7FF FFFE       BL               LIS3DH_ReadReg
 1979 0000000C B908            CBNZ             r0,|L42.18|
 1980 0000000E 2000            MOVS             r0,#0
 1981 00000010         |L42.16|
 1982 00000010 BD1C            POP              {r2-r4,pc}
 1983 00000012         |L42.18|
 1984 00000012 4669            MOV              r1,sp
 1985 00000014 2023            MOVS             r0,#0x23
 1986 00000016 F7FF FFFE       BL               LIS3DH_ReadReg
 1987 0000001A B908            CBNZ             r0,|L42.32|
 1988 0000001C 2000            MOVS             r0,#0
 1989 0000001E E7F7            B                |L42.16|
 1990 00000020         |L42.32|
 1991 00000020 F89D 0004       LDRB             r0,[sp,#4]
 1992 00000024 F000 00F0       AND              r0,r0,#0xf0
 1993 00000028 B938            CBNZ             r0,|L42.58|
 1994 0000002A 4829            LDR              r0,|L42.208|
 1995 0000002C 7800            LDRB             r0,[r0,#0]  ; ODR_old_value
 1996 0000002E F000 00F0       AND              r0,r0,#0xf0
 1997 00000032 F89D 1004       LDRB             r1,[sp,#4]
 1998 00000036 4308            ORRS             r0,r0,r1
 1999 00000038 9001            STR              r0,[sp,#4]
 2000 0000003A         |L42.58|
 2001 0000003A B124            CBZ              r4,|L42.70|
 2002 0000003C 2C01            CMP              r4,#1
 2003 0000003E D01F            BEQ              |L42.128|
 2004 00000040 2C02            CMP              r4,#2
 2005 00000042 D130            BNE              |L42.166|
 2006 00000044 E009            B                |L42.90|
 2007 00000046         |L42.70|
 2008 00000046 F89D 0004       LDRB             r0,[sp,#4]
 2009 0000004A 4921            LDR              r1,|L42.208|
 2010 0000004C 7008            STRB             r0,[r1,#0]
 2011 0000004E F89D 0004       LDRB             r0,[sp,#4]
 2012 00000052 F000 000F       AND              r0,r0,#0xf
 2013 00000056 9001            STR              r0,[sp,#4]
 2014 00000058 E027            B                |L42.170|
 2015 0000005A         |L42.90|
 2016 0000005A F89D 0004       LDRB             r0,[sp,#4]
 2017 0000005E F000 00F7       AND              r0,r0,#0xf7
 2018 00000062 9001            STR              r0,[sp,#4]
 2019 00000064 F89D 0004       LDRB             r0,[sp,#4]
 2020 00000068 9001            STR              r0,[sp,#4]
 2021 0000006A F89D 0000       LDRB             r0,[sp,#0]
 2022 0000006E F000 00F7       AND              r0,r0,#0xf7
 2023 00000072 9000            STR              r0,[sp,#0]
 2024 00000074 F89D 0000       LDRB             r0,[sp,#0]
 2025 00000078 F040 0008       ORR              r0,r0,#8



ARM Macro Assembler    Page 37 


 2026 0000007C 9000            STR              r0,[sp,#0]
 2027 0000007E E014            B                |L42.170|
 2028 00000080         |L42.128|
 2029 00000080 F89D 0004       LDRB             r0,[sp,#4]
 2030 00000084 F000 00F7       AND              r0,r0,#0xf7
 2031 00000088 9001            STR              r0,[sp,#4]
 2032 0000008A F89D 0004       LDRB             r0,[sp,#4]
 2033 0000008E F040 0008       ORR              r0,r0,#8
 2034 00000092 9001            STR              r0,[sp,#4]
 2035 00000094 F89D 0000       LDRB             r0,[sp,#0]
 2036 00000098 F000 00F7       AND              r0,r0,#0xf7
 2037 0000009C 9000            STR              r0,[sp,#0]
 2038 0000009E F89D 0000       LDRB             r0,[sp,#0]
 2039 000000A2 9000            STR              r0,[sp,#0]
 2040 000000A4 E001            B                |L42.170|
 2041 000000A6         |L42.166|
 2042 000000A6 2000            MOVS             r0,#0
 2043 000000A8 E7B2            B                |L42.16|
 2044 000000AA         |L42.170|
 2045 000000AA BF00            NOP
 2046 000000AC F89D 1004       LDRB             r1,[sp,#4]
 2047 000000B0 2020            MOVS             r0,#0x20
 2048 000000B2 F7FF FFFE       BL               LIS3DH_WriteReg
 2049 000000B6 B908            CBNZ             r0,|L42.188|
 2050 000000B8 2000            MOVS             r0,#0
 2051 000000BA E7A9            B                |L42.16|
 2052 000000BC         |L42.188|
 2053 000000BC F89D 1000       LDRB             r1,[sp,#0]
 2054 000000C0 2023            MOVS             r0,#0x23
 2055 000000C2 F7FF FFFE       BL               LIS3DH_WriteReg
 2056 000000C6 B908            CBNZ             r0,|L42.204|
 2057 000000C8 2000            MOVS             r0,#0
 2058 000000CA E7A1            B                |L42.16|
 2059 000000CC         |L42.204|
 2060 000000CC 2001            MOVS             r0,#1
 2061 000000CE E79F            B                |L42.16|
 2062 000000D0                 ENDP
 2063 000000D0         
 2064 000000D0         |L42.208|
 2065 000000D0 00000000        DCD              ODR_old_value
 2066 000000D4         
 2067 000000D4                 AREA             ||i.LIS3DH_SetODR||, CODE, READ
ONLY, ALIGN=1
 2068 00000000         
 2069 00000000         LIS3DH_SetODR
                               PROC
 2070 00000000 B538            PUSH             {r3-r5,lr}
 2071 00000002 4604            MOV              r4,r0
 2072 00000004 4669            MOV              r1,sp
 2073 00000006 2020            MOVS             r0,#0x20
 2074 00000008 F7FF FFFE       BL               LIS3DH_ReadReg
 2075 0000000C B908            CBNZ             r0,|L43.18|
 2076 0000000E 2000            MOVS             r0,#0
 2077 00000010         |L43.16|
 2078 00000010 BD38            POP              {r3-r5,pc}
 2079 00000012         |L43.18|
 2080 00000012 F89D 0000       LDRB             r0,[sp,#0]
 2081 00000016 F000 000F       AND              r0,r0,#0xf
 2082 0000001A 9000            STR              r0,[sp,#0]



ARM Macro Assembler    Page 38 


 2083 0000001C F89D 0000       LDRB             r0,[sp,#0]
 2084 00000020 EA40 1004       ORR              r0,r0,r4,LSL #4
 2085 00000024 B2C0            UXTB             r0,r0
 2086 00000026 9000            STR              r0,[sp,#0]
 2087 00000028 F89D 1000       LDRB             r1,[sp,#0]
 2088 0000002C 2020            MOVS             r0,#0x20
 2089 0000002E F7FF FFFE       BL               LIS3DH_WriteReg
 2090 00000032 B908            CBNZ             r0,|L43.56|
 2091 00000034 2000            MOVS             r0,#0
 2092 00000036 E7EB            B                |L43.16|
 2093 00000038         |L43.56|
 2094 00000038 2001            MOVS             r0,#1
 2095 0000003A E7E9            B                |L43.16|
 2096 0000003C                 ENDP
 2097 0000003C         
 2098 0000003C         
 2099 0000003C                 AREA             ||i.LIS3DH_SetSPIInterface||, C
ODE, READONLY, ALIGN=1
 2100 00000000         
 2101 00000000         LIS3DH_SetSPIInterface
                               PROC
 2102 00000000 B538            PUSH             {r3-r5,lr}
 2103 00000002 4604            MOV              r4,r0
 2104 00000004 4669            MOV              r1,sp
 2105 00000006 2023            MOVS             r0,#0x23
 2106 00000008 F7FF FFFE       BL               LIS3DH_ReadReg
 2107 0000000C B908            CBNZ             r0,|L44.18|
 2108 0000000E 2000            MOVS             r0,#0
 2109 00000010         |L44.16|
 2110 00000010 BD38            POP              {r3-r5,pc}
 2111 00000012         |L44.18|
 2112 00000012 F89D 0000       LDRB             r0,[sp,#0]
 2113 00000016 F000 00FE       AND              r0,r0,#0xfe
 2114 0000001A 9000            STR              r0,[sp,#0]
 2115 0000001C F89D 0000       LDRB             r0,[sp,#0]
 2116 00000020 4320            ORRS             r0,r0,r4
 2117 00000022 9000            STR              r0,[sp,#0]
 2118 00000024 F89D 1000       LDRB             r1,[sp,#0]
 2119 00000028 2023            MOVS             r0,#0x23
 2120 0000002A F7FF FFFE       BL               LIS3DH_WriteReg
 2121 0000002E B908            CBNZ             r0,|L44.52|
 2122 00000030 2000            MOVS             r0,#0
 2123 00000032 E7ED            B                |L44.16|
 2124 00000034         |L44.52|
 2125 00000034 2001            MOVS             r0,#1
 2126 00000036 E7EB            B                |L44.16|
 2127 00000038                 ENDP
 2128 00000038         
 2129 00000038         
 2130 00000038                 AREA             ||i.LIS3DH_SetSelfTest||, CODE,
 READONLY, ALIGN=1
 2131 00000000         
 2132 00000000         LIS3DH_SetSelfTest
                               PROC
 2133 00000000 B538            PUSH             {r3-r5,lr}
 2134 00000002 4604            MOV              r4,r0
 2135 00000004 4669            MOV              r1,sp
 2136 00000006 2023            MOVS             r0,#0x23
 2137 00000008 F7FF FFFE       BL               LIS3DH_ReadReg



ARM Macro Assembler    Page 39 


 2138 0000000C B908            CBNZ             r0,|L45.18|
 2139 0000000E 2000            MOVS             r0,#0
 2140 00000010         |L45.16|
 2141 00000010 BD38            POP              {r3-r5,pc}
 2142 00000012         |L45.18|
 2143 00000012 F89D 0000       LDRB             r0,[sp,#0]
 2144 00000016 F000 00F9       AND              r0,r0,#0xf9
 2145 0000001A 9000            STR              r0,[sp,#0]
 2146 0000001C F89D 0000       LDRB             r0,[sp,#0]
 2147 00000020 EA40 0044       ORR              r0,r0,r4,LSL #1
 2148 00000024 B2C0            UXTB             r0,r0
 2149 00000026 9000            STR              r0,[sp,#0]
 2150 00000028 F89D 1000       LDRB             r1,[sp,#0]
 2151 0000002C 2023            MOVS             r0,#0x23
 2152 0000002E F7FF FFFE       BL               LIS3DH_WriteReg
 2153 00000032 B908            CBNZ             r0,|L45.56|
 2154 00000034 2000            MOVS             r0,#0
 2155 00000036 E7EB            B                |L45.16|
 2156 00000038         |L45.56|
 2157 00000038 2001            MOVS             r0,#1
 2158 0000003A E7E9            B                |L45.16|
 2159 0000003C                 ENDP
 2160 0000003C         
 2161 0000003C         
 2162 0000003C                 AREA             ||i.LIS3DH_SetTemperature||, CO
DE, READONLY, ALIGN=1
 2163 00000000         
 2164 00000000         LIS3DH_SetTemperature
                               PROC
 2165 00000000 B538            PUSH             {r3-r5,lr}
 2166 00000002 4604            MOV              r4,r0
 2167 00000004 4669            MOV              r1,sp
 2168 00000006 201F            MOVS             r0,#0x1f
 2169 00000008 F7FF FFFE       BL               LIS3DH_ReadReg
 2170 0000000C B908            CBNZ             r0,|L46.18|
 2171 0000000E 2000            MOVS             r0,#0
 2172 00000010         |L46.16|
 2173 00000010 BD38            POP              {r3-r5,pc}
 2174 00000012         |L46.18|
 2175 00000012 F89D 0000       LDRB             r0,[sp,#0]
 2176 00000016 F000 00BF       AND              r0,r0,#0xbf
 2177 0000001A 9000            STR              r0,[sp,#0]
 2178 0000001C F89D 0000       LDRB             r0,[sp,#0]
 2179 00000020 EA40 1084       ORR              r0,r0,r4,LSL #6
 2180 00000024 B2C0            UXTB             r0,r0
 2181 00000026 9000            STR              r0,[sp,#0]
 2182 00000028 F89D 1000       LDRB             r1,[sp,#0]
 2183 0000002C 201F            MOVS             r0,#0x1f
 2184 0000002E F7FF FFFE       BL               LIS3DH_WriteReg
 2185 00000032 B908            CBNZ             r0,|L46.56|
 2186 00000034 2000            MOVS             r0,#0
 2187 00000036 E7EB            B                |L46.16|
 2188 00000038         |L46.56|
 2189 00000038 2001            MOVS             r0,#1
 2190 0000003A E7E9            B                |L46.16|
 2191 0000003C                 ENDP
 2192 0000003C         
 2193 0000003C         
 2194 0000003C                 AREA             ||i.LIS3DH_SetTriggerInt||, COD



ARM Macro Assembler    Page 40 


E, READONLY, ALIGN=1
 2195 00000000         
 2196 00000000         LIS3DH_SetTriggerInt
                               PROC
 2197 00000000 B538            PUSH             {r3-r5,lr}
 2198 00000002 4604            MOV              r4,r0
 2199 00000004 4669            MOV              r1,sp
 2200 00000006 202E            MOVS             r0,#0x2e
 2201 00000008 F7FF FFFE       BL               LIS3DH_ReadReg
 2202 0000000C B908            CBNZ             r0,|L47.18|
 2203 0000000E 2000            MOVS             r0,#0
 2204 00000010         |L47.16|
 2205 00000010 BD38            POP              {r3-r5,pc}
 2206 00000012         |L47.18|
 2207 00000012 F89D 0000       LDRB             r0,[sp,#0]
 2208 00000016 F000 00DF       AND              r0,r0,#0xdf
 2209 0000001A 9000            STR              r0,[sp,#0]
 2210 0000001C F89D 0000       LDRB             r0,[sp,#0]
 2211 00000020 EA40 1044       ORR              r0,r0,r4,LSL #5
 2212 00000024 B2C0            UXTB             r0,r0
 2213 00000026 9000            STR              r0,[sp,#0]
 2214 00000028 F89D 1000       LDRB             r1,[sp,#0]
 2215 0000002C 202E            MOVS             r0,#0x2e
 2216 0000002E F7FF FFFE       BL               LIS3DH_WriteReg
 2217 00000032 B908            CBNZ             r0,|L47.56|
 2218 00000034 2000            MOVS             r0,#0
 2219 00000036 E7EB            B                |L47.16|
 2220 00000038         |L47.56|
 2221 00000038 2001            MOVS             r0,#1
 2222 0000003A E7E9            B                |L47.16|
 2223 0000003C                 ENDP
 2224 0000003C         
 2225 0000003C         
 2226 0000003C                 AREA             ||i.LIS3DH_SetWaterMark||, CODE
, READONLY, ALIGN=1
 2227 00000000         
 2228 00000000         LIS3DH_SetWaterMark
                               PROC
 2229 00000000 B538            PUSH             {r3-r5,lr}
 2230 00000002 4604            MOV              r4,r0
 2231 00000004 2C1F            CMP              r4,#0x1f
 2232 00000006 DD01            BLE              |L48.12|
 2233 00000008 2000            MOVS             r0,#0
 2234 0000000A         |L48.10|
 2235 0000000A BD38            POP              {r3-r5,pc}
 2236 0000000C         |L48.12|
 2237 0000000C 4669            MOV              r1,sp
 2238 0000000E 202E            MOVS             r0,#0x2e
 2239 00000010 F7FF FFFE       BL               LIS3DH_ReadReg
 2240 00000014 B908            CBNZ             r0,|L48.26|
 2241 00000016 2000            MOVS             r0,#0
 2242 00000018 E7F7            B                |L48.10|
 2243 0000001A         |L48.26|
 2244 0000001A F89D 0000       LDRB             r0,[sp,#0]
 2245 0000001E F000 00E0       AND              r0,r0,#0xe0
 2246 00000022 9000            STR              r0,[sp,#0]
 2247 00000024 F89D 0000       LDRB             r0,[sp,#0]
 2248 00000028 4320            ORRS             r0,r0,r4
 2249 0000002A 9000            STR              r0,[sp,#0]



ARM Macro Assembler    Page 41 


 2250 0000002C F89D 1000       LDRB             r1,[sp,#0]
 2251 00000030 202E            MOVS             r0,#0x2e
 2252 00000032 F7FF FFFE       BL               LIS3DH_WriteReg
 2253 00000036 B908            CBNZ             r0,|L48.60|
 2254 00000038 2000            MOVS             r0,#0
 2255 0000003A E7E6            B                |L48.10|
 2256 0000003C         |L48.60|
 2257 0000003C 2001            MOVS             r0,#1
 2258 0000003E E7E4            B                |L48.10|
 2259 00000040                 ENDP
 2260 00000040         
 2261 00000040         
 2262 00000040                 AREA             ||i.LIS3DH_WriteReg||, CODE, RE
ADONLY, ALIGN=1
 2263 00000000         
 2264 00000000         LIS3DH_WriteReg
                               PROC
 2265 00000000 4602            MOV              r2,r0
 2266 00000002 2001            MOVS             r0,#1
 2267 00000004 4770            BX               lr
 2268 00000006                 ENDP
 2269 00000006         
 2270 00000006         
 2271 00000006                 AREA             ||.arm_vfe_header||, DATA, READ
ONLY, NOALLOC, ALIGN=2
 2272 00000000         
 2273 00000000 00000000        DCD              0x00000000
 2274 00000004         
 2275 00000004                 AREA             ||.data||, DATA, ALIGN=0
 2276 00000000         
 2277 00000000         ODR_old_value
 2278 00000000 00              DCB              0x00
 2279 00000001         
 2280 00000001         ;*** Start embedded assembler ***
 2281 00000001         
 2282 00000001         #line   1                "..\\Src\\lis3dh_driver.c"
    1 00000001                 AREA             ||.rev16_text||, CODE
    2 00000000                 THUMB
    3 00000000                 EXPORT           |__asm___15_lis3dh_driver_c_5c9
e0f0f____REV16|
    4 00000000         #line   138              "../Drivers/CMSIS/Include/core_
cmInstr.h"
  138 00000000         |__asm___15_lis3dh_driver_c_5c9e0f0f____REV16|
                               PROC
  139 00000000         #line   139
  139 00000000         
  140 00000000 BA40            rev16            r0, r0
  141 00000002 4770            bx               lr
  142 00000004                 ENDP
  143 00000004                 AREA             ||.revsh_text||, CODE
  144 00000000                 THUMB
  145 00000000                 EXPORT           |__asm___15_lis3dh_driver_c_5c9
e0f0f____REVSH|
  146 00000000         #line   153
  153 00000000         |__asm___15_lis3dh_driver_c_5c9e0f0f____REVSH|
                               PROC
  154 00000000         #line   154
  154 00000000         
  155 00000000 BAC0            revsh            r0, r0



ARM Macro Assembler    Page 42 


  156 00000002 4770            bx               lr
  157 00000004                 ENDP
  158 00000004                 AREA             ||.rrx_text||, CODE
  159 00000000                 THUMB
  160 00000000                 EXPORT           |__asm___15_lis3dh_driver_c_5c9
e0f0f____RRX|
  161 00000000         #line   328
  328 00000000         |__asm___15_lis3dh_driver_c_5c9e0f0f____RRX|
                               PROC
  329 00000000         #line   329
  329 00000000         
  330 00000000 EA4F 0030       rrx              r0, r0
  331 00000004 4770            bx               lr
  332 00000006                 ENDP
  333 00000006         
  334 00000006         ;*** End   embedded assembler ***
  335 00000006         
  336 00000006                 EXPORT           LIS3DH_FIFOModeEnable [CODE]
  337 00000006                 EXPORT           LIS3DH_Get6DPosition [CODE]
  338 00000006                 EXPORT           LIS3DH_GetAccAxesRaw [CODE]
  339 00000006                 EXPORT           LIS3DH_GetAuxRaw [CODE]
  340 00000006                 EXPORT           LIS3DH_GetClickResponse [CODE]
  341 00000006                 EXPORT           LIS3DH_GetFifoSourceBit [CODE]
  342 00000006                 EXPORT           LIS3DH_GetFifoSourceFSS [CODE]
  343 00000006                 EXPORT           LIS3DH_GetFifoSourceReg [CODE]
  344 00000006                 EXPORT           LIS3DH_GetInt1Src [CODE]
  345 00000006                 EXPORT           LIS3DH_GetInt1SrcBit [CODE]
  346 00000006                 EXPORT           LIS3DH_GetStatusAUX [CODE]
  347 00000006                 EXPORT           LIS3DH_GetStatusAUXBit [CODE]
  348 00000006                 EXPORT           LIS3DH_GetStatusBit [CODE]
  349 00000006                 EXPORT           LIS3DH_GetStatusReg [CODE]
  350 00000006                 EXPORT           LIS3DH_GetTempRaw [CODE]
  351 00000006                 EXPORT           LIS3DH_GetWHO_AM_I [CODE]
  352 00000006                 EXPORT           LIS3DH_HPFAOI1Enable [CODE]
  353 00000006                 EXPORT           LIS3DH_HPFAOI2Enable [CODE]
  354 00000006                 EXPORT           LIS3DH_HPFClickEnable [CODE]
  355 00000006                 EXPORT           LIS3DH_Int1LatchEnable [CODE]
  356 00000006                 EXPORT           LIS3DH_ReadReg [CODE]
  357 00000006                 EXPORT           LIS3DH_ResetInt1Latch [CODE]
  358 00000006                 EXPORT           LIS3DH_SetADCAux [CODE]
  359 00000006                 EXPORT           LIS3DH_SetAxis [CODE]
  360 00000006                 EXPORT           LIS3DH_SetBDU [CODE]
  361 00000006                 EXPORT           LIS3DH_SetBLE [CODE]
  362 00000006                 EXPORT           LIS3DH_SetClickCFG [CODE]
  363 00000006                 EXPORT           LIS3DH_SetClickLATENCY [CODE]
  364 00000006                 EXPORT           LIS3DH_SetClickLIMIT [CODE]
  365 00000006                 EXPORT           LIS3DH_SetClickTHS [CODE]
  366 00000006                 EXPORT           LIS3DH_SetClickWINDOW [CODE]
  367 00000006                 EXPORT           LIS3DH_SetFilterDataSel [CODE]
  368 00000006                 EXPORT           LIS3DH_SetFullScale [CODE]
  369 00000006                 EXPORT           LIS3DH_SetHPFCutOFF [CODE]
  370 00000006                 EXPORT           LIS3DH_SetHPFMode [CODE]
  371 00000006                 EXPORT           LIS3DH_SetInt1Duration [CODE]
  372 00000006                 EXPORT           LIS3DH_SetInt1Pin [CODE]
  373 00000006                 EXPORT           LIS3DH_SetInt1Threshold [CODE]
  374 00000006                 EXPORT           LIS3DH_SetInt2Pin [CODE]
  375 00000006                 EXPORT           LIS3DH_SetInt6D4DConfiguration 
[CODE]
  376 00000006                 EXPORT           LIS3DH_SetIntConfiguration [COD



ARM Macro Assembler    Page 43 


E]
  377 00000006                 EXPORT           LIS3DH_SetIntMode [CODE]
  378 00000006                 EXPORT           LIS3DH_SetMode [CODE]
  379 00000006                 EXPORT           LIS3DH_SetODR [CODE]
  380 00000006                 EXPORT           LIS3DH_SetSPIInterface [CODE]
  381 00000006                 EXPORT           LIS3DH_SetSelfTest [CODE]
  382 00000006                 EXPORT           LIS3DH_SetTemperature [CODE]
  383 00000006                 EXPORT           LIS3DH_SetTriggerInt [CODE]
  384 00000006                 EXPORT           LIS3DH_SetWaterMark [CODE]
  385 00000006                 EXPORT           LIS3DH_WriteReg [CODE]
  386 00000006         
  387 00000006                 IMPORT           ||Lib$$Request$$armlib|| [CODE,
WEAK]
  388 00000006                 IMPORT           HAL_SPI_TransmitReceive [CODE]
  389 00000006                 IMPORT           hspi1 [DATA]
  390 00000006         
  391 00000006                 KEEP             ODR_old_value
  392 00000006         
  393 00000006                 ATTR             FILESCOPE
  394 00000006                 ATTR             SETVALUE Tag_ABI_PCS_wchar_t,2
  395 00000006                 ATTR             SETVALUE Tag_ABI_enum_size,1
  396 00000006                 ATTR             SETVALUE Tag_ABI_optimization_g
oals,6
  397 00000006                 ATTR             SETSTRING Tag_conformance,"2.06
"
  398 00000006                 ATTR             SETVALUE AV,18,1
  399 00000006         
  400 00000006                 ASSERT           {ENDIAN} = "little"
  401 00000006                 ASSERT           {INTER} = {TRUE}
  402 00000006                 ASSERT           {ROPI} = {FALSE}
  403 00000006                 ASSERT           {RWPI} = {FALSE}
  404 00000006                 ASSERT           {IEEE_FULL} = {FALSE}
  405 00000006                 ASSERT           {IEEE_PART} = {FALSE}
  406 00000006                 ASSERT           {IEEE_JAVA} = {FALSE}
  407 00000006                 END
Command Line: --debug --xref --diag_suppress=9931 --cpu=Cortex-M3 --apcs=interw
ork -ofw\lis3dh_driver.o -IC:\Sensor\FW\MDK-ARM\RTE -IC:\Keil\ARM\PACK\ARM\CMSI
S\4.5.0\CMSIS\Include -IC:\Keil\ARM\PACK\Keil\STM32L1xx_DFP\1.0.2\Device\Includ
e --predefine="__MICROLIB SETA 1" --predefine="__UVISION_VERSION SETA 516" --pr
edefine="_RTE_ SETA 1" --predefine="STM32L1XX_HD SETA 1" --list=lis3dh_driver.l
st fw\lis3dh_driver.s



ARM Macro Assembler    Page 1 Alphabetic symbol ordering
Relocatable symbols

L0.110 0000006E

Symbol: L0.110
   Definitions
      At line 58 in file fw\lis3dh_driver.s
   Uses
      At line 55 in file fw\lis3dh_driver.s
Comment: L0.110 used once
L0.146 00000092

Symbol: L0.146
   Definitions
      At line 71 in file fw\lis3dh_driver.s
   Uses
      At line 68 in file fw\lis3dh_driver.s
Comment: L0.146 used once
L0.160 000000A0

Symbol: L0.160
   Definitions
      At line 78 in file fw\lis3dh_driver.s
   Uses
      At line 75 in file fw\lis3dh_driver.s
Comment: L0.160 used once
L0.198 000000C6

Symbol: L0.198
   Definitions
      At line 92 in file fw\lis3dh_driver.s
   Uses
      At line 51 in file fw\lis3dh_driver.s
      At line 89 in file fw\lis3dh_driver.s

L0.20 00000014

Symbol: L0.20
   Definitions
      At line 19 in file fw\lis3dh_driver.s
   Uses
      At line 32 in file fw\lis3dh_driver.s
      At line 39 in file fw\lis3dh_driver.s
      At line 49 in file fw\lis3dh_driver.s
      At line 57 in file fw\lis3dh_driver.s
      At line 70 in file fw\lis3dh_driver.s
      At line 77 in file fw\lis3dh_driver.s
      At line 91 in file fw\lis3dh_driver.s
      At line 102 in file fw\lis3dh_driver.s
      At line 115 in file fw\lis3dh_driver.s
      At line 122 in file fw\lis3dh_driver.s
      At line 136 in file fw\lis3dh_driver.s
      At line 145 in file fw\lis3dh_driver.s
      At line 158 in file fw\lis3dh_driver.s
      At line 165 in file fw\lis3dh_driver.s
      At line 179 in file fw\lis3dh_driver.s
      At line 188 in file fw\lis3dh_driver.s
      At line 201 in file fw\lis3dh_driver.s
      At line 208 in file fw\lis3dh_driver.s
      At line 222 in file fw\lis3dh_driver.s
      At line 225 in file fw\lis3dh_driver.s



ARM Macro Assembler    Page 2 Alphabetic symbol ordering
Relocatable symbols


L0.200 000000C8

Symbol: L0.200
   Definitions
      At line 94 in file fw\lis3dh_driver.s
   Uses
      At line 93 in file fw\lis3dh_driver.s
Comment: L0.200 used once
L0.218 000000DA

Symbol: L0.218
   Definitions
      At line 103 in file fw\lis3dh_driver.s
   Uses
      At line 100 in file fw\lis3dh_driver.s
Comment: L0.218 used once
L0.22 00000016

Symbol: L0.22
   Definitions
      At line 21 in file fw\lis3dh_driver.s
   Uses
      At line 17 in file fw\lis3dh_driver.s
Comment: L0.22 used once
L0.254 000000FE

Symbol: L0.254
   Definitions
      At line 116 in file fw\lis3dh_driver.s
   Uses
      At line 113 in file fw\lis3dh_driver.s
Comment: L0.254 used once
L0.268 0000010C

Symbol: L0.268
   Definitions
      At line 123 in file fw\lis3dh_driver.s
   Uses
      At line 120 in file fw\lis3dh_driver.s
Comment: L0.268 used once
L0.306 00000132

Symbol: L0.306
   Definitions
      At line 137 in file fw\lis3dh_driver.s
   Uses
      At line 96 in file fw\lis3dh_driver.s
      At line 134 in file fw\lis3dh_driver.s

L0.324 00000144

Symbol: L0.324
   Definitions
      At line 146 in file fw\lis3dh_driver.s
   Uses
      At line 143 in file fw\lis3dh_driver.s
Comment: L0.324 used once
L0.360 00000168



ARM Macro Assembler    Page 3 Alphabetic symbol ordering
Relocatable symbols


Symbol: L0.360
   Definitions
      At line 159 in file fw\lis3dh_driver.s
   Uses
      At line 156 in file fw\lis3dh_driver.s
Comment: L0.360 used once
L0.374 00000176

Symbol: L0.374
   Definitions
      At line 166 in file fw\lis3dh_driver.s
   Uses
      At line 163 in file fw\lis3dh_driver.s
Comment: L0.374 used once
L0.412 0000019C

Symbol: L0.412
   Definitions
      At line 180 in file fw\lis3dh_driver.s
   Uses
      At line 139 in file fw\lis3dh_driver.s
      At line 177 in file fw\lis3dh_driver.s

L0.430 000001AE

Symbol: L0.430
   Definitions
      At line 189 in file fw\lis3dh_driver.s
   Uses
      At line 186 in file fw\lis3dh_driver.s
Comment: L0.430 used once
L0.466 000001D2

Symbol: L0.466
   Definitions
      At line 202 in file fw\lis3dh_driver.s
   Uses
      At line 199 in file fw\lis3dh_driver.s
Comment: L0.466 used once
L0.480 000001E0

Symbol: L0.480
   Definitions
      At line 209 in file fw\lis3dh_driver.s
   Uses
      At line 206 in file fw\lis3dh_driver.s
Comment: L0.480 used once
L0.518 00000206

Symbol: L0.518
   Definitions
      At line 223 in file fw\lis3dh_driver.s
   Uses
      At line 182 in file fw\lis3dh_driver.s
      At line 220 in file fw\lis3dh_driver.s

L0.54 00000036




ARM Macro Assembler    Page 4 Alphabetic symbol ordering
Relocatable symbols

Symbol: L0.54
   Definitions
      At line 33 in file fw\lis3dh_driver.s
   Uses
      At line 30 in file fw\lis3dh_driver.s
Comment: L0.54 used once
L0.68 00000044

Symbol: L0.68
   Definitions
      At line 40 in file fw\lis3dh_driver.s
   Uses
      At line 37 in file fw\lis3dh_driver.s
Comment: L0.68 used once
L0.94 0000005E

Symbol: L0.94
   Definitions
      At line 50 in file fw\lis3dh_driver.s
   Uses
      At line 13 in file fw\lis3dh_driver.s
      At line 47 in file fw\lis3dh_driver.s

LIS3DH_FIFOModeEnable 00000000

Symbol: LIS3DH_FIFOModeEnable
   Definitions
      At line 9 in file fw\lis3dh_driver.s
   Uses
      At line 336 in file ..\Drivers\CMSIS\Include\core_cmInstr.h
Comment: LIS3DH_FIFOModeEnable used once
|i.LIS3DH_FIFOModeEnable| 00000000

Symbol: |i.LIS3DH_FIFOModeEnable|
   Definitions
      At line 7 in file fw\lis3dh_driver.s
   Uses
      None
Comment: |i.LIS3DH_FIFOModeEnable| unused
24 symbols



ARM Macro Assembler    Page 1 Alphabetic symbol ordering
Relocatable symbols

L1.16 00000010

Symbol: L1.16
   Definitions
      At line 239 in file fw\lis3dh_driver.s
   Uses
      At line 289 in file fw\lis3dh_driver.s
Comment: L1.16 used once
L1.18 00000012

Symbol: L1.18
   Definitions
      At line 241 in file fw\lis3dh_driver.s
   Uses
      At line 237 in file fw\lis3dh_driver.s
Comment: L1.18 used once
L1.52 00000034

Symbol: L1.52
   Definitions
      At line 256 in file fw\lis3dh_driver.s
   Uses
      At line 248 in file fw\lis3dh_driver.s
Comment: L1.52 used once
L1.62 0000003E

Symbol: L1.62
   Definitions
      At line 262 in file fw\lis3dh_driver.s
   Uses
      At line 255 in file fw\lis3dh_driver.s
Comment: L1.62 used once
L1.68 00000044

Symbol: L1.68
   Definitions
      At line 266 in file fw\lis3dh_driver.s
   Uses
      At line 252 in file fw\lis3dh_driver.s
Comment: L1.68 used once
L1.74 0000004A

Symbol: L1.74
   Definitions
      At line 270 in file fw\lis3dh_driver.s
   Uses
      At line 250 in file fw\lis3dh_driver.s
Comment: L1.74 used once
L1.80 00000050

Symbol: L1.80
   Definitions
      At line 274 in file fw\lis3dh_driver.s
   Uses
      At line 247 in file fw\lis3dh_driver.s
Comment: L1.80 used once
L1.86 00000056

Symbol: L1.86



ARM Macro Assembler    Page 2 Alphabetic symbol ordering
Relocatable symbols

   Definitions
      At line 278 in file fw\lis3dh_driver.s
   Uses
      At line 261 in file fw\lis3dh_driver.s
Comment: L1.86 used once
L1.92 0000005C

Symbol: L1.92
   Definitions
      At line 282 in file fw\lis3dh_driver.s
   Uses
      At line 258 in file fw\lis3dh_driver.s
Comment: L1.92 used once
L1.98 00000062

Symbol: L1.98
   Definitions
      At line 286 in file fw\lis3dh_driver.s
   Uses
      At line 254 in file fw\lis3dh_driver.s
      At line 260 in file fw\lis3dh_driver.s
      At line 265 in file fw\lis3dh_driver.s
      At line 269 in file fw\lis3dh_driver.s
      At line 273 in file fw\lis3dh_driver.s
      At line 277 in file fw\lis3dh_driver.s
      At line 281 in file fw\lis3dh_driver.s

LIS3DH_Get6DPosition 00000000

Symbol: LIS3DH_Get6DPosition
   Definitions
      At line 231 in file fw\lis3dh_driver.s
   Uses
      At line 337 in file ..\Drivers\CMSIS\Include\core_cmInstr.h
Comment: LIS3DH_Get6DPosition used once
|i.LIS3DH_Get6DPosition| 00000000

Symbol: |i.LIS3DH_Get6DPosition|
   Definitions
      At line 229 in file fw\lis3dh_driver.s
   Uses
      None
Comment: |i.LIS3DH_Get6DPosition| unused
12 symbols



ARM Macro Assembler    Page 1 Alphabetic symbol ordering
Relocatable symbols

L2.104 00000068

Symbol: L2.104
   Definitions
      At line 346 in file fw\lis3dh_driver.s
   Uses
      At line 343 in file fw\lis3dh_driver.s
Comment: L2.104 used once
L2.20 00000014

Symbol: L2.20
   Definitions
      At line 305 in file fw\lis3dh_driver.s
   Uses
      At line 313 in file fw\lis3dh_driver.s
      At line 322 in file fw\lis3dh_driver.s
      At line 329 in file fw\lis3dh_driver.s
      At line 338 in file fw\lis3dh_driver.s
      At line 345 in file fw\lis3dh_driver.s
      At line 350 in file fw\lis3dh_driver.s

L2.22 00000016

Symbol: L2.22
   Definitions
      At line 307 in file fw\lis3dh_driver.s
   Uses
      At line 303 in file fw\lis3dh_driver.s
Comment: L2.22 used once
L2.36 00000024

Symbol: L2.36
   Definitions
      At line 314 in file fw\lis3dh_driver.s
   Uses
      At line 311 in file fw\lis3dh_driver.s
Comment: L2.36 used once
L2.56 00000038

Symbol: L2.56
   Definitions
      At line 323 in file fw\lis3dh_driver.s
   Uses
      At line 320 in file fw\lis3dh_driver.s
Comment: L2.56 used once
L2.70 00000046

Symbol: L2.70
   Definitions
      At line 330 in file fw\lis3dh_driver.s
   Uses
      At line 327 in file fw\lis3dh_driver.s
Comment: L2.70 used once
L2.90 0000005A

Symbol: L2.90
   Definitions
      At line 339 in file fw\lis3dh_driver.s
   Uses



ARM Macro Assembler    Page 2 Alphabetic symbol ordering
Relocatable symbols

      At line 336 in file fw\lis3dh_driver.s
Comment: L2.90 used once
LIS3DH_GetAccAxesRaw 00000000

Symbol: LIS3DH_GetAccAxesRaw
   Definitions
      At line 295 in file fw\lis3dh_driver.s
   Uses
      At line 338 in file ..\Drivers\CMSIS\Include\core_cmInstr.h
Comment: LIS3DH_GetAccAxesRaw used once
|i.LIS3DH_GetAccAxesRaw| 00000000

Symbol: |i.LIS3DH_GetAccAxesRaw|
   Definitions
      At line 293 in file fw\lis3dh_driver.s
   Uses
      None
Comment: |i.LIS3DH_GetAccAxesRaw| unused
9 symbols



ARM Macro Assembler    Page 1 Alphabetic symbol ordering
Relocatable symbols

L3.118 00000076

Symbol: L3.118
   Definitions
      At line 408 in file fw\lis3dh_driver.s
   Uses
      At line 405 in file fw\lis3dh_driver.s
Comment: L3.118 used once
L3.132 00000084

Symbol: L3.132
   Definitions
      At line 415 in file fw\lis3dh_driver.s
   Uses
      At line 412 in file fw\lis3dh_driver.s
Comment: L3.132 used once
L3.16 00000010

Symbol: L3.16
   Definitions
      At line 364 in file fw\lis3dh_driver.s
   Uses
      At line 372 in file fw\lis3dh_driver.s
      At line 386 in file fw\lis3dh_driver.s
      At line 393 in file fw\lis3dh_driver.s
      At line 407 in file fw\lis3dh_driver.s
      At line 414 in file fw\lis3dh_driver.s
      At line 424 in file fw\lis3dh_driver.s

L3.18 00000012

Symbol: L3.18
   Definitions
      At line 366 in file fw\lis3dh_driver.s
   Uses
      At line 362 in file fw\lis3dh_driver.s
Comment: L3.18 used once
L3.32 00000020

Symbol: L3.32
   Definitions
      At line 373 in file fw\lis3dh_driver.s
   Uses
      At line 370 in file fw\lis3dh_driver.s
Comment: L3.32 used once
L3.68 00000044

Symbol: L3.68
   Definitions
      At line 387 in file fw\lis3dh_driver.s
   Uses
      At line 384 in file fw\lis3dh_driver.s
Comment: L3.68 used once
L3.82 00000052

Symbol: L3.82
   Definitions
      At line 394 in file fw\lis3dh_driver.s
   Uses



ARM Macro Assembler    Page 2 Alphabetic symbol ordering
Relocatable symbols

      At line 391 in file fw\lis3dh_driver.s
Comment: L3.82 used once
LIS3DH_GetAuxRaw 00000000

Symbol: LIS3DH_GetAuxRaw
   Definitions
      At line 356 in file fw\lis3dh_driver.s
   Uses
      At line 339 in file ..\Drivers\CMSIS\Include\core_cmInstr.h
Comment: LIS3DH_GetAuxRaw used once
|i.LIS3DH_GetAuxRaw| 00000000

Symbol: |i.LIS3DH_GetAuxRaw|
   Definitions
      At line 354 in file fw\lis3dh_driver.s
   Uses
      None
Comment: |i.LIS3DH_GetAuxRaw| unused
9 symbols



ARM Macro Assembler    Page 1 Alphabetic symbol ordering
Relocatable symbols

L4.102 00000066

Symbol: L4.102
   Definitions
      At line 473 in file fw\lis3dh_driver.s
   Uses
      At line 468 in file fw\lis3dh_driver.s
Comment: L4.102 used once
L4.122 0000007A

Symbol: L4.122
   Definitions
      At line 482 in file fw\lis3dh_driver.s
   Uses
      At line 457 in file fw\lis3dh_driver.s
Comment: L4.122 used once
L4.140 0000008C

Symbol: L4.140
   Definitions
      At line 490 in file fw\lis3dh_driver.s
   Uses
      At line 485 in file fw\lis3dh_driver.s
Comment: L4.140 used once
L4.158 0000009E

Symbol: L4.158
   Definitions
      At line 498 in file fw\lis3dh_driver.s
   Uses
      At line 454 in file fw\lis3dh_driver.s
Comment: L4.158 used once
L4.16 00000010

Symbol: L4.16
   Definitions
      At line 438 in file fw\lis3dh_driver.s
   Uses
      At line 450 in file fw\lis3dh_driver.s
      At line 464 in file fw\lis3dh_driver.s
      At line 472 in file fw\lis3dh_driver.s
      At line 481 in file fw\lis3dh_driver.s
      At line 489 in file fw\lis3dh_driver.s
      At line 497 in file fw\lis3dh_driver.s
      At line 507 in file fw\lis3dh_driver.s
      At line 518 in file fw\lis3dh_driver.s
      At line 526 in file fw\lis3dh_driver.s
      At line 534 in file fw\lis3dh_driver.s
      At line 542 in file fw\lis3dh_driver.s
      At line 550 in file fw\lis3dh_driver.s
      At line 560 in file fw\lis3dh_driver.s
      At line 563 in file fw\lis3dh_driver.s

L4.160 000000A0

Symbol: L4.160
   Definitions
      At line 500 in file fw\lis3dh_driver.s
   Uses



ARM Macro Assembler    Page 2 Alphabetic symbol ordering
Relocatable symbols

      At line 493 in file fw\lis3dh_driver.s
Comment: L4.160 used once
L4.178 000000B2

Symbol: L4.178
   Definitions
      At line 508 in file fw\lis3dh_driver.s
   Uses
      At line 499 in file fw\lis3dh_driver.s
Comment: L4.178 used once
L4.18 00000012

Symbol: L4.18
   Definitions
      At line 440 in file fw\lis3dh_driver.s
   Uses
      At line 436 in file fw\lis3dh_driver.s
Comment: L4.18 used once
L4.206 000000CE

Symbol: L4.206
   Definitions
      At line 519 in file fw\lis3dh_driver.s
   Uses
      At line 514 in file fw\lis3dh_driver.s
Comment: L4.206 used once
L4.224 000000E0

Symbol: L4.224
   Definitions
      At line 527 in file fw\lis3dh_driver.s
   Uses
      At line 522 in file fw\lis3dh_driver.s
Comment: L4.224 used once
L4.242 000000F2

Symbol: L4.242
   Definitions
      At line 535 in file fw\lis3dh_driver.s
   Uses
      At line 511 in file fw\lis3dh_driver.s
Comment: L4.242 used once
L4.260 00000104

Symbol: L4.260
   Definitions
      At line 543 in file fw\lis3dh_driver.s
   Uses
      At line 538 in file fw\lis3dh_driver.s
Comment: L4.260 used once
L4.278 00000116

Symbol: L4.278
   Definitions
      At line 551 in file fw\lis3dh_driver.s
   Uses
      At line 503 in file fw\lis3dh_driver.s
      At line 530 in file fw\lis3dh_driver.s




ARM Macro Assembler    Page 3 Alphabetic symbol ordering
Relocatable symbols

L4.280 00000118

Symbol: L4.280
   Definitions
      At line 553 in file fw\lis3dh_driver.s
   Uses
      At line 546 in file fw\lis3dh_driver.s
Comment: L4.280 used once
L4.298 0000012A

Symbol: L4.298
   Definitions
      At line 561 in file fw\lis3dh_driver.s
   Uses
      At line 477 in file fw\lis3dh_driver.s
      At line 552 in file fw\lis3dh_driver.s
      At line 556 in file fw\lis3dh_driver.s

L4.46 0000002E

Symbol: L4.46
   Definitions
      At line 451 in file fw\lis3dh_driver.s
   Uses
      At line 446 in file fw\lis3dh_driver.s
Comment: L4.46 used once
L4.84 00000054

Symbol: L4.84
   Definitions
      At line 465 in file fw\lis3dh_driver.s
   Uses
      At line 460 in file fw\lis3dh_driver.s
Comment: L4.84 used once
LIS3DH_GetClickResponse 00000000

Symbol: LIS3DH_GetClickResponse
   Definitions
      At line 430 in file fw\lis3dh_driver.s
   Uses
      At line 340 in file ..\Drivers\CMSIS\Include\core_cmInstr.h
Comment: LIS3DH_GetClickResponse used once
|i.LIS3DH_GetClickResponse| 00000000

Symbol: |i.LIS3DH_GetClickResponse|
   Definitions
      At line 428 in file fw\lis3dh_driver.s
   Uses
      None
Comment: |i.LIS3DH_GetClickResponse| unused
19 symbols



ARM Macro Assembler    Page 1 Alphabetic symbol ordering
Relocatable symbols

L5.108 0000006C

Symbol: L5.108
   Definitions
      At line 626 in file fw\lis3dh_driver.s
   Uses
      At line 622 in file fw\lis3dh_driver.s
Comment: L5.108 used once
L5.116 00000074

Symbol: L5.116
   Definitions
      At line 631 in file fw\lis3dh_driver.s
   Uses
      At line 612 in file fw\lis3dh_driver.s
Comment: L5.116 used once
L5.18 00000012

Symbol: L5.18
   Definitions
      At line 578 in file fw\lis3dh_driver.s
   Uses
      At line 589 in file fw\lis3dh_driver.s
      At line 594 in file fw\lis3dh_driver.s
      At line 604 in file fw\lis3dh_driver.s
      At line 609 in file fw\lis3dh_driver.s
      At line 625 in file fw\lis3dh_driver.s
      At line 630 in file fw\lis3dh_driver.s
      At line 633 in file fw\lis3dh_driver.s

L5.20 00000014

Symbol: L5.20
   Definitions
      At line 580 in file fw\lis3dh_driver.s
   Uses
      At line 576 in file fw\lis3dh_driver.s
Comment: L5.20 used once
L5.42 0000002A

Symbol: L5.42
   Definitions
      At line 590 in file fw\lis3dh_driver.s
   Uses
      At line 586 in file fw\lis3dh_driver.s
Comment: L5.42 used once
L5.50 00000032

Symbol: L5.50
   Definitions
      At line 595 in file fw\lis3dh_driver.s
   Uses
      At line 582 in file fw\lis3dh_driver.s
Comment: L5.50 used once
L5.72 00000048

Symbol: L5.72
   Definitions
      At line 605 in file fw\lis3dh_driver.s



ARM Macro Assembler    Page 2 Alphabetic symbol ordering
Relocatable symbols

   Uses
      At line 601 in file fw\lis3dh_driver.s
Comment: L5.72 used once
L5.80 00000050

Symbol: L5.80
   Definitions
      At line 610 in file fw\lis3dh_driver.s
   Uses
      At line 597 in file fw\lis3dh_driver.s
Comment: L5.80 used once
L5.90 0000005A

Symbol: L5.90
   Definitions
      At line 616 in file fw\lis3dh_driver.s
   Uses
      At line 613 in file fw\lis3dh_driver.s
Comment: L5.90 used once
L5.92 0000005C

Symbol: L5.92
   Definitions
      At line 618 in file fw\lis3dh_driver.s
   Uses
      At line 615 in file fw\lis3dh_driver.s
Comment: L5.92 used once
LIS3DH_GetFifoSourceBit 00000000

Symbol: LIS3DH_GetFifoSourceBit
   Definitions
      At line 569 in file fw\lis3dh_driver.s
   Uses
      At line 341 in file ..\Drivers\CMSIS\Include\core_cmInstr.h
Comment: LIS3DH_GetFifoSourceBit used once
|i.LIS3DH_GetFifoSourceBit| 00000000

Symbol: |i.LIS3DH_GetFifoSourceBit|
   Definitions
      At line 567 in file fw\lis3dh_driver.s
   Uses
      None
Comment: |i.LIS3DH_GetFifoSourceBit| unused
12 symbols



ARM Macro Assembler    Page 1 Alphabetic symbol ordering
Relocatable symbols

L6.16 00000010

Symbol: L6.16
   Definitions
      At line 647 in file fw\lis3dh_driver.s
   Uses
      At line 656 in file fw\lis3dh_driver.s
Comment: L6.16 used once
L6.18 00000012

Symbol: L6.18
   Definitions
      At line 649 in file fw\lis3dh_driver.s
   Uses
      At line 645 in file fw\lis3dh_driver.s
Comment: L6.18 used once
LIS3DH_GetFifoSourceFSS 00000000

Symbol: LIS3DH_GetFifoSourceFSS
   Definitions
      At line 639 in file fw\lis3dh_driver.s
   Uses
      At line 342 in file ..\Drivers\CMSIS\Include\core_cmInstr.h
Comment: LIS3DH_GetFifoSourceFSS used once
|i.LIS3DH_GetFifoSourceFSS| 00000000

Symbol: |i.LIS3DH_GetFifoSourceFSS|
   Definitions
      At line 637 in file fw\lis3dh_driver.s
   Uses
      None
Comment: |i.LIS3DH_GetFifoSourceFSS| unused
4 symbols



ARM Macro Assembler    Page 1 Alphabetic symbol ordering
Relocatable symbols

L7.16 00000010

Symbol: L7.16
   Definitions
      At line 670 in file fw\lis3dh_driver.s
   Uses
      At line 674 in file fw\lis3dh_driver.s
Comment: L7.16 used once
L7.18 00000012

Symbol: L7.18
   Definitions
      At line 672 in file fw\lis3dh_driver.s
   Uses
      At line 668 in file fw\lis3dh_driver.s
Comment: L7.18 used once
LIS3DH_GetFifoSourceReg 00000000

Symbol: LIS3DH_GetFifoSourceReg
   Definitions
      At line 662 in file fw\lis3dh_driver.s
   Uses
      At line 343 in file ..\Drivers\CMSIS\Include\core_cmInstr.h
Comment: LIS3DH_GetFifoSourceReg used once
|i.LIS3DH_GetFifoSourceReg| 00000000

Symbol: |i.LIS3DH_GetFifoSourceReg|
   Definitions
      At line 660 in file fw\lis3dh_driver.s
   Uses
      None
Comment: |i.LIS3DH_GetFifoSourceReg| unused
4 symbols



ARM Macro Assembler    Page 1 Alphabetic symbol ordering
Relocatable symbols

L8.16 00000010

Symbol: L8.16
   Definitions
      At line 688 in file fw\lis3dh_driver.s
   Uses
      At line 692 in file fw\lis3dh_driver.s
Comment: L8.16 used once
L8.18 00000012

Symbol: L8.18
   Definitions
      At line 690 in file fw\lis3dh_driver.s
   Uses
      At line 686 in file fw\lis3dh_driver.s
Comment: L8.18 used once
LIS3DH_GetInt1Src 00000000

Symbol: LIS3DH_GetInt1Src
   Definitions
      At line 680 in file fw\lis3dh_driver.s
   Uses
      At line 344 in file ..\Drivers\CMSIS\Include\core_cmInstr.h
Comment: LIS3DH_GetInt1Src used once
|i.LIS3DH_GetInt1Src| 00000000

Symbol: |i.LIS3DH_GetInt1Src|
   Definitions
      At line 678 in file fw\lis3dh_driver.s
   Uses
      None
Comment: |i.LIS3DH_GetInt1Src| unused
4 symbols



ARM Macro Assembler    Page 1 Alphabetic symbol ordering
Relocatable symbols

L9.102 00000066

Symbol: L9.102
   Definitions
      At line 749 in file fw\lis3dh_driver.s
   Uses
      At line 745 in file fw\lis3dh_driver.s
Comment: L9.102 used once
L9.110 0000006E

Symbol: L9.110
   Definitions
      At line 754 in file fw\lis3dh_driver.s
   Uses
      At line 741 in file fw\lis3dh_driver.s
Comment: L9.110 used once
L9.132 00000084

Symbol: L9.132
   Definitions
      At line 764 in file fw\lis3dh_driver.s
   Uses
      At line 760 in file fw\lis3dh_driver.s
Comment: L9.132 used once
L9.140 0000008C

Symbol: L9.140
   Definitions
      At line 769 in file fw\lis3dh_driver.s
   Uses
      At line 756 in file fw\lis3dh_driver.s
Comment: L9.140 used once
L9.162 000000A2

Symbol: L9.162
   Definitions
      At line 779 in file fw\lis3dh_driver.s
   Uses
      At line 775 in file fw\lis3dh_driver.s
Comment: L9.162 used once
L9.170 000000AA

Symbol: L9.170
   Definitions
      At line 784 in file fw\lis3dh_driver.s
   Uses
      At line 771 in file fw\lis3dh_driver.s
Comment: L9.170 used once
L9.18 00000012

Symbol: L9.18
   Definitions
      At line 707 in file fw\lis3dh_driver.s
   Uses
      At line 718 in file fw\lis3dh_driver.s
      At line 723 in file fw\lis3dh_driver.s
      At line 733 in file fw\lis3dh_driver.s
      At line 738 in file fw\lis3dh_driver.s
      At line 748 in file fw\lis3dh_driver.s



ARM Macro Assembler    Page 2 Alphabetic symbol ordering
Relocatable symbols

      At line 753 in file fw\lis3dh_driver.s
      At line 763 in file fw\lis3dh_driver.s
      At line 768 in file fw\lis3dh_driver.s
      At line 778 in file fw\lis3dh_driver.s
      At line 783 in file fw\lis3dh_driver.s
      At line 793 in file fw\lis3dh_driver.s
      At line 798 in file fw\lis3dh_driver.s
      At line 808 in file fw\lis3dh_driver.s
      At line 813 in file fw\lis3dh_driver.s
      At line 816 in file fw\lis3dh_driver.s

L9.192 000000C0

Symbol: L9.192
   Definitions
      At line 794 in file fw\lis3dh_driver.s
   Uses
      At line 790 in file fw\lis3dh_driver.s
Comment: L9.192 used once
L9.20 00000014

Symbol: L9.20
   Definitions
      At line 709 in file fw\lis3dh_driver.s
   Uses
      At line 705 in file fw\lis3dh_driver.s
Comment: L9.20 used once
L9.200 000000C8

Symbol: L9.200
   Definitions
      At line 799 in file fw\lis3dh_driver.s
   Uses
      At line 786 in file fw\lis3dh_driver.s
Comment: L9.200 used once
L9.222 000000DE

Symbol: L9.222
   Definitions
      At line 809 in file fw\lis3dh_driver.s
   Uses
      At line 805 in file fw\lis3dh_driver.s
Comment: L9.222 used once
L9.230 000000E6

Symbol: L9.230
   Definitions
      At line 814 in file fw\lis3dh_driver.s
   Uses
      At line 801 in file fw\lis3dh_driver.s
Comment: L9.230 used once
L9.42 0000002A

Symbol: L9.42
   Definitions
      At line 719 in file fw\lis3dh_driver.s
   Uses
      At line 715 in file fw\lis3dh_driver.s
Comment: L9.42 used once



ARM Macro Assembler    Page 3 Alphabetic symbol ordering
Relocatable symbols

L9.50 00000032

Symbol: L9.50
   Definitions
      At line 724 in file fw\lis3dh_driver.s
   Uses
      At line 711 in file fw\lis3dh_driver.s
Comment: L9.50 used once
L9.72 00000048

Symbol: L9.72
   Definitions
      At line 734 in file fw\lis3dh_driver.s
   Uses
      At line 730 in file fw\lis3dh_driver.s
Comment: L9.72 used once
L9.80 00000050

Symbol: L9.80
   Definitions
      At line 739 in file fw\lis3dh_driver.s
   Uses
      At line 726 in file fw\lis3dh_driver.s
Comment: L9.80 used once
LIS3DH_GetInt1SrcBit 00000000

Symbol: LIS3DH_GetInt1SrcBit
   Definitions
      At line 698 in file fw\lis3dh_driver.s
   Uses
      At line 345 in file ..\Drivers\CMSIS\Include\core_cmInstr.h
Comment: LIS3DH_GetInt1SrcBit used once
|i.LIS3DH_GetInt1SrcBit| 00000000

Symbol: |i.LIS3DH_GetInt1SrcBit|
   Definitions
      At line 696 in file fw\lis3dh_driver.s
   Uses
      None
Comment: |i.LIS3DH_GetInt1SrcBit| unused
18 symbols



ARM Macro Assembler    Page 1 Alphabetic symbol ordering
Relocatable symbols

L10.16 00000010

Symbol: L10.16
   Definitions
      At line 830 in file fw\lis3dh_driver.s
   Uses
      At line 834 in file fw\lis3dh_driver.s
Comment: L10.16 used once
L10.18 00000012

Symbol: L10.18
   Definitions
      At line 832 in file fw\lis3dh_driver.s
   Uses
      At line 828 in file fw\lis3dh_driver.s
Comment: L10.18 used once
LIS3DH_GetStatusAUX 00000000

Symbol: LIS3DH_GetStatusAUX
   Definitions
      At line 822 in file fw\lis3dh_driver.s
   Uses
      At line 346 in file ..\Drivers\CMSIS\Include\core_cmInstr.h
Comment: LIS3DH_GetStatusAUX used once
|i.LIS3DH_GetStatusAUX| 00000000

Symbol: |i.LIS3DH_GetStatusAUX|
   Definitions
      At line 820 in file fw\lis3dh_driver.s
   Uses
      None
Comment: |i.LIS3DH_GetStatusAUX| unused
4 symbols



ARM Macro Assembler    Page 1 Alphabetic symbol ordering
Relocatable symbols

L11.102 00000066

Symbol: L11.102
   Definitions
      At line 891 in file fw\lis3dh_driver.s
   Uses
      At line 887 in file fw\lis3dh_driver.s
Comment: L11.102 used once
L11.110 0000006E

Symbol: L11.110
   Definitions
      At line 896 in file fw\lis3dh_driver.s
   Uses
      At line 883 in file fw\lis3dh_driver.s
Comment: L11.110 used once
L11.132 00000084

Symbol: L11.132
   Definitions
      At line 906 in file fw\lis3dh_driver.s
   Uses
      At line 902 in file fw\lis3dh_driver.s
Comment: L11.132 used once
L11.140 0000008C

Symbol: L11.140
   Definitions
      At line 911 in file fw\lis3dh_driver.s
   Uses
      At line 898 in file fw\lis3dh_driver.s
Comment: L11.140 used once
L11.162 000000A2

Symbol: L11.162
   Definitions
      At line 921 in file fw\lis3dh_driver.s
   Uses
      At line 917 in file fw\lis3dh_driver.s
Comment: L11.162 used once
L11.170 000000AA

Symbol: L11.170
   Definitions
      At line 926 in file fw\lis3dh_driver.s
   Uses
      At line 913 in file fw\lis3dh_driver.s
Comment: L11.170 used once
L11.18 00000012

Symbol: L11.18
   Definitions
      At line 849 in file fw\lis3dh_driver.s
   Uses
      At line 860 in file fw\lis3dh_driver.s
      At line 865 in file fw\lis3dh_driver.s
      At line 875 in file fw\lis3dh_driver.s
      At line 880 in file fw\lis3dh_driver.s
      At line 890 in file fw\lis3dh_driver.s



ARM Macro Assembler    Page 2 Alphabetic symbol ordering
Relocatable symbols

      At line 895 in file fw\lis3dh_driver.s
      At line 905 in file fw\lis3dh_driver.s
      At line 910 in file fw\lis3dh_driver.s
      At line 920 in file fw\lis3dh_driver.s
      At line 925 in file fw\lis3dh_driver.s
      At line 935 in file fw\lis3dh_driver.s
      At line 940 in file fw\lis3dh_driver.s
      At line 950 in file fw\lis3dh_driver.s
      At line 955 in file fw\lis3dh_driver.s
      At line 965 in file fw\lis3dh_driver.s
      At line 970 in file fw\lis3dh_driver.s
      At line 973 in file fw\lis3dh_driver.s

L11.192 000000C0

Symbol: L11.192
   Definitions
      At line 936 in file fw\lis3dh_driver.s
   Uses
      At line 932 in file fw\lis3dh_driver.s
Comment: L11.192 used once
L11.20 00000014

Symbol: L11.20
   Definitions
      At line 851 in file fw\lis3dh_driver.s
   Uses
      At line 847 in file fw\lis3dh_driver.s
Comment: L11.20 used once
L11.200 000000C8

Symbol: L11.200
   Definitions
      At line 941 in file fw\lis3dh_driver.s
   Uses
      At line 928 in file fw\lis3dh_driver.s
Comment: L11.200 used once
L11.222 000000DE

Symbol: L11.222
   Definitions
      At line 951 in file fw\lis3dh_driver.s
   Uses
      At line 947 in file fw\lis3dh_driver.s
Comment: L11.222 used once
L11.230 000000E6

Symbol: L11.230
   Definitions
      At line 956 in file fw\lis3dh_driver.s
   Uses
      At line 943 in file fw\lis3dh_driver.s
Comment: L11.230 used once
L11.252 000000FC

Symbol: L11.252
   Definitions
      At line 966 in file fw\lis3dh_driver.s
   Uses



ARM Macro Assembler    Page 3 Alphabetic symbol ordering
Relocatable symbols

      At line 962 in file fw\lis3dh_driver.s
Comment: L11.252 used once
L11.260 00000104

Symbol: L11.260
   Definitions
      At line 971 in file fw\lis3dh_driver.s
   Uses
      At line 958 in file fw\lis3dh_driver.s
Comment: L11.260 used once
L11.42 0000002A

Symbol: L11.42
   Definitions
      At line 861 in file fw\lis3dh_driver.s
   Uses
      At line 857 in file fw\lis3dh_driver.s
Comment: L11.42 used once
L11.50 00000032

Symbol: L11.50
   Definitions
      At line 866 in file fw\lis3dh_driver.s
   Uses
      At line 853 in file fw\lis3dh_driver.s
Comment: L11.50 used once
L11.72 00000048

Symbol: L11.72
   Definitions
      At line 876 in file fw\lis3dh_driver.s
   Uses
      At line 872 in file fw\lis3dh_driver.s
Comment: L11.72 used once
L11.80 00000050

Symbol: L11.80
   Definitions
      At line 881 in file fw\lis3dh_driver.s
   Uses
      At line 868 in file fw\lis3dh_driver.s
Comment: L11.80 used once
LIS3DH_GetStatusAUXBit 00000000

Symbol: LIS3DH_GetStatusAUXBit
   Definitions
      At line 840 in file fw\lis3dh_driver.s
   Uses
      At line 347 in file ..\Drivers\CMSIS\Include\core_cmInstr.h
Comment: LIS3DH_GetStatusAUXBit used once
|i.LIS3DH_GetStatusAUXBit| 00000000

Symbol: |i.LIS3DH_GetStatusAUXBit|
   Definitions
      At line 838 in file fw\lis3dh_driver.s
   Uses
      None
Comment: |i.LIS3DH_GetStatusAUXBit| unused
20 symbols



ARM Macro Assembler    Page 1 Alphabetic symbol ordering
Relocatable symbols

L12.100 00000064

Symbol: L12.100
   Definitions
      At line 1030 in file fw\lis3dh_driver.s
   Uses
      At line 1026 in file fw\lis3dh_driver.s
Comment: L12.100 used once
L12.108 0000006C

Symbol: L12.108
   Definitions
      At line 1035 in file fw\lis3dh_driver.s
   Uses
      At line 1005 in file fw\lis3dh_driver.s
Comment: L12.108 used once
L12.126 0000007E

Symbol: L12.126
   Definitions
      At line 1043 in file fw\lis3dh_driver.s
   Uses
      At line 1039 in file fw\lis3dh_driver.s
Comment: L12.126 used once
L12.134 00000086

Symbol: L12.134
   Definitions
      At line 1048 in file fw\lis3dh_driver.s
   Uses
      At line 992 in file fw\lis3dh_driver.s
Comment: L12.134 used once
L12.152 00000098

Symbol: L12.152
   Definitions
      At line 1056 in file fw\lis3dh_driver.s
   Uses
      At line 1052 in file fw\lis3dh_driver.s
Comment: L12.152 used once
L12.160 000000A0

Symbol: L12.160
   Definitions
      At line 1061 in file fw\lis3dh_driver.s
   Uses
      At line 1002 in file fw\lis3dh_driver.s
Comment: L12.160 used once
L12.178 000000B2

Symbol: L12.178
   Definitions
      At line 1069 in file fw\lis3dh_driver.s
   Uses
      At line 1065 in file fw\lis3dh_driver.s
Comment: L12.178 used once
L12.18 00000012

Symbol: L12.18



ARM Macro Assembler    Page 2 Alphabetic symbol ordering
Relocatable symbols

   Definitions
      At line 988 in file fw\lis3dh_driver.s
   Uses
      At line 1016 in file fw\lis3dh_driver.s
      At line 1021 in file fw\lis3dh_driver.s
      At line 1029 in file fw\lis3dh_driver.s
      At line 1034 in file fw\lis3dh_driver.s
      At line 1042 in file fw\lis3dh_driver.s
      At line 1047 in file fw\lis3dh_driver.s
      At line 1055 in file fw\lis3dh_driver.s
      At line 1060 in file fw\lis3dh_driver.s
      At line 1068 in file fw\lis3dh_driver.s
      At line 1073 in file fw\lis3dh_driver.s
      At line 1081 in file fw\lis3dh_driver.s
      At line 1086 in file fw\lis3dh_driver.s
      At line 1094 in file fw\lis3dh_driver.s
      At line 1099 in file fw\lis3dh_driver.s
      At line 1107 in file fw\lis3dh_driver.s
      At line 1112 in file fw\lis3dh_driver.s
      At line 1115 in file fw\lis3dh_driver.s

L12.186 000000BA

Symbol: L12.186
   Definitions
      At line 1074 in file fw\lis3dh_driver.s
   Uses
      At line 999 in file fw\lis3dh_driver.s
Comment: L12.186 used once
L12.20 00000014

Symbol: L12.20
   Definitions
      At line 990 in file fw\lis3dh_driver.s
   Uses
      At line 986 in file fw\lis3dh_driver.s
Comment: L12.20 used once
L12.204 000000CC

Symbol: L12.204
   Definitions
      At line 1082 in file fw\lis3dh_driver.s
   Uses
      At line 1078 in file fw\lis3dh_driver.s
Comment: L12.204 used once
L12.212 000000D4

Symbol: L12.212
   Definitions
      At line 1087 in file fw\lis3dh_driver.s
   Uses
      At line 997 in file fw\lis3dh_driver.s
Comment: L12.212 used once
L12.230 000000E6

Symbol: L12.230
   Definitions
      At line 1095 in file fw\lis3dh_driver.s
   Uses



ARM Macro Assembler    Page 3 Alphabetic symbol ordering
Relocatable symbols

      At line 1091 in file fw\lis3dh_driver.s
Comment: L12.230 used once
L12.238 000000EE

Symbol: L12.238
   Definitions
      At line 1100 in file fw\lis3dh_driver.s
   Uses
      At line 995 in file fw\lis3dh_driver.s
Comment: L12.238 used once
L12.256 00000100

Symbol: L12.256
   Definitions
      At line 1108 in file fw\lis3dh_driver.s
   Uses
      At line 1104 in file fw\lis3dh_driver.s
Comment: L12.256 used once
L12.264 00000108

Symbol: L12.264
   Definitions
      At line 1113 in file fw\lis3dh_driver.s
   Uses
      At line 1001 in file fw\lis3dh_driver.s
      At line 1009 in file fw\lis3dh_driver.s

L12.44 0000002C

Symbol: L12.44
   Definitions
      At line 1003 in file fw\lis3dh_driver.s
   Uses
      At line 993 in file fw\lis3dh_driver.s
Comment: L12.44 used once
L12.74 0000004A

Symbol: L12.74
   Definitions
      At line 1017 in file fw\lis3dh_driver.s
   Uses
      At line 1013 in file fw\lis3dh_driver.s
Comment: L12.74 used once
L12.82 00000052

Symbol: L12.82
   Definitions
      At line 1022 in file fw\lis3dh_driver.s
   Uses
      At line 1007 in file fw\lis3dh_driver.s
Comment: L12.82 used once
LIS3DH_GetStatusBit 00000000

Symbol: LIS3DH_GetStatusBit
   Definitions
      At line 979 in file fw\lis3dh_driver.s
   Uses
      At line 348 in file ..\Drivers\CMSIS\Include\core_cmInstr.h
Comment: LIS3DH_GetStatusBit used once



ARM Macro Assembler    Page 4 Alphabetic symbol ordering
Relocatable symbols

|i.LIS3DH_GetStatusBit| 00000000

Symbol: |i.LIS3DH_GetStatusBit|
   Definitions
      At line 977 in file fw\lis3dh_driver.s
   Uses
      None
Comment: |i.LIS3DH_GetStatusBit| unused
21 symbols



ARM Macro Assembler    Page 1 Alphabetic symbol ordering
Relocatable symbols

L13.16 00000010

Symbol: L13.16
   Definitions
      At line 1129 in file fw\lis3dh_driver.s
   Uses
      At line 1133 in file fw\lis3dh_driver.s
Comment: L13.16 used once
L13.18 00000012

Symbol: L13.18
   Definitions
      At line 1131 in file fw\lis3dh_driver.s
   Uses
      At line 1127 in file fw\lis3dh_driver.s
Comment: L13.18 used once
LIS3DH_GetStatusReg 00000000

Symbol: LIS3DH_GetStatusReg
   Definitions
      At line 1121 in file fw\lis3dh_driver.s
   Uses
      At line 349 in file ..\Drivers\CMSIS\Include\core_cmInstr.h
Comment: LIS3DH_GetStatusReg used once
|i.LIS3DH_GetStatusReg| 00000000

Symbol: |i.LIS3DH_GetStatusReg|
   Definitions
      At line 1119 in file fw\lis3dh_driver.s
   Uses
      None
Comment: |i.LIS3DH_GetStatusReg| unused
4 symbols



ARM Macro Assembler    Page 1 Alphabetic symbol ordering
Relocatable symbols

L14.16 00000010

Symbol: L14.16
   Definitions
      At line 1147 in file fw\lis3dh_driver.s
   Uses
      At line 1155 in file fw\lis3dh_driver.s
      At line 1161 in file fw\lis3dh_driver.s

L14.18 00000012

Symbol: L14.18
   Definitions
      At line 1149 in file fw\lis3dh_driver.s
   Uses
      At line 1145 in file fw\lis3dh_driver.s
Comment: L14.18 used once
L14.32 00000020

Symbol: L14.32
   Definitions
      At line 1156 in file fw\lis3dh_driver.s
   Uses
      At line 1153 in file fw\lis3dh_driver.s
Comment: L14.32 used once
LIS3DH_GetTempRaw 00000000

Symbol: LIS3DH_GetTempRaw
   Definitions
      At line 1139 in file fw\lis3dh_driver.s
   Uses
      At line 350 in file ..\Drivers\CMSIS\Include\core_cmInstr.h
Comment: LIS3DH_GetTempRaw used once
|i.LIS3DH_GetTempRaw| 00000000

Symbol: |i.LIS3DH_GetTempRaw|
   Definitions
      At line 1137 in file fw\lis3dh_driver.s
   Uses
      None
Comment: |i.LIS3DH_GetTempRaw| unused
5 symbols



ARM Macro Assembler    Page 1 Alphabetic symbol ordering
Relocatable symbols

L15.16 00000010

Symbol: L15.16
   Definitions
      At line 1175 in file fw\lis3dh_driver.s
   Uses
      At line 1179 in file fw\lis3dh_driver.s
Comment: L15.16 used once
L15.18 00000012

Symbol: L15.18
   Definitions
      At line 1177 in file fw\lis3dh_driver.s
   Uses
      At line 1173 in file fw\lis3dh_driver.s
Comment: L15.18 used once
LIS3DH_GetWHO_AM_I 00000000

Symbol: LIS3DH_GetWHO_AM_I
   Definitions
      At line 1167 in file fw\lis3dh_driver.s
   Uses
      At line 351 in file ..\Drivers\CMSIS\Include\core_cmInstr.h
Comment: LIS3DH_GetWHO_AM_I used once
|i.LIS3DH_GetWHO_AM_I| 00000000

Symbol: |i.LIS3DH_GetWHO_AM_I|
   Definitions
      At line 1165 in file fw\lis3dh_driver.s
   Uses
      None
Comment: |i.LIS3DH_GetWHO_AM_I| unused
4 symbols



ARM Macro Assembler    Page 1 Alphabetic symbol ordering
Relocatable symbols

L16.16 00000010

Symbol: L16.16
   Definitions
      At line 1193 in file fw\lis3dh_driver.s
   Uses
      At line 1207 in file fw\lis3dh_driver.s
      At line 1210 in file fw\lis3dh_driver.s

L16.18 00000012

Symbol: L16.18
   Definitions
      At line 1195 in file fw\lis3dh_driver.s
   Uses
      At line 1191 in file fw\lis3dh_driver.s
Comment: L16.18 used once
L16.52 00000034

Symbol: L16.52
   Definitions
      At line 1208 in file fw\lis3dh_driver.s
   Uses
      At line 1205 in file fw\lis3dh_driver.s
Comment: L16.52 used once
LIS3DH_HPFAOI1Enable 00000000

Symbol: LIS3DH_HPFAOI1Enable
   Definitions
      At line 1185 in file fw\lis3dh_driver.s
   Uses
      At line 352 in file ..\Drivers\CMSIS\Include\core_cmInstr.h
Comment: LIS3DH_HPFAOI1Enable used once
|i.LIS3DH_HPFAOI1Enable| 00000000

Symbol: |i.LIS3DH_HPFAOI1Enable|
   Definitions
      At line 1183 in file fw\lis3dh_driver.s
   Uses
      None
Comment: |i.LIS3DH_HPFAOI1Enable| unused
5 symbols



ARM Macro Assembler    Page 1 Alphabetic symbol ordering
Relocatable symbols

L17.16 00000010

Symbol: L17.16
   Definitions
      At line 1224 in file fw\lis3dh_driver.s
   Uses
      At line 1239 in file fw\lis3dh_driver.s
      At line 1242 in file fw\lis3dh_driver.s

L17.18 00000012

Symbol: L17.18
   Definitions
      At line 1226 in file fw\lis3dh_driver.s
   Uses
      At line 1222 in file fw\lis3dh_driver.s
Comment: L17.18 used once
L17.56 00000038

Symbol: L17.56
   Definitions
      At line 1240 in file fw\lis3dh_driver.s
   Uses
      At line 1237 in file fw\lis3dh_driver.s
Comment: L17.56 used once
LIS3DH_HPFAOI2Enable 00000000

Symbol: LIS3DH_HPFAOI2Enable
   Definitions
      At line 1216 in file fw\lis3dh_driver.s
   Uses
      At line 353 in file ..\Drivers\CMSIS\Include\core_cmInstr.h
Comment: LIS3DH_HPFAOI2Enable used once
|i.LIS3DH_HPFAOI2Enable| 00000000

Symbol: |i.LIS3DH_HPFAOI2Enable|
   Definitions
      At line 1214 in file fw\lis3dh_driver.s
   Uses
      None
Comment: |i.LIS3DH_HPFAOI2Enable| unused
5 symbols



ARM Macro Assembler    Page 1 Alphabetic symbol ordering
Relocatable symbols

L18.16 00000010

Symbol: L18.16
   Definitions
      At line 1256 in file fw\lis3dh_driver.s
   Uses
      At line 1271 in file fw\lis3dh_driver.s
      At line 1274 in file fw\lis3dh_driver.s

L18.18 00000012

Symbol: L18.18
   Definitions
      At line 1258 in file fw\lis3dh_driver.s
   Uses
      At line 1254 in file fw\lis3dh_driver.s
Comment: L18.18 used once
L18.56 00000038

Symbol: L18.56
   Definitions
      At line 1272 in file fw\lis3dh_driver.s
   Uses
      At line 1269 in file fw\lis3dh_driver.s
Comment: L18.56 used once
LIS3DH_HPFClickEnable 00000000

Symbol: LIS3DH_HPFClickEnable
   Definitions
      At line 1248 in file fw\lis3dh_driver.s
   Uses
      At line 354 in file ..\Drivers\CMSIS\Include\core_cmInstr.h
Comment: LIS3DH_HPFClickEnable used once
|i.LIS3DH_HPFClickEnable| 00000000

Symbol: |i.LIS3DH_HPFClickEnable|
   Definitions
      At line 1246 in file fw\lis3dh_driver.s
   Uses
      None
Comment: |i.LIS3DH_HPFClickEnable| unused
5 symbols



ARM Macro Assembler    Page 1 Alphabetic symbol ordering
Relocatable symbols

L19.16 00000010

Symbol: L19.16
   Definitions
      At line 1288 in file fw\lis3dh_driver.s
   Uses
      At line 1303 in file fw\lis3dh_driver.s
      At line 1306 in file fw\lis3dh_driver.s

L19.18 00000012

Symbol: L19.18
   Definitions
      At line 1290 in file fw\lis3dh_driver.s
   Uses
      At line 1286 in file fw\lis3dh_driver.s
Comment: L19.18 used once
L19.56 00000038

Symbol: L19.56
   Definitions
      At line 1304 in file fw\lis3dh_driver.s
   Uses
      At line 1301 in file fw\lis3dh_driver.s
Comment: L19.56 used once
LIS3DH_Int1LatchEnable 00000000

Symbol: LIS3DH_Int1LatchEnable
   Definitions
      At line 1280 in file fw\lis3dh_driver.s
   Uses
      At line 355 in file ..\Drivers\CMSIS\Include\core_cmInstr.h
Comment: LIS3DH_Int1LatchEnable used once
|i.LIS3DH_Int1LatchEnable| 00000000

Symbol: |i.LIS3DH_Int1LatchEnable|
   Definitions
      At line 1278 in file fw\lis3dh_driver.s
   Uses
      None
Comment: |i.LIS3DH_Int1LatchEnable| unused
5 symbols



ARM Macro Assembler    Page 1 Alphabetic symbol ordering
Relocatable symbols

L20.32 00000020

Symbol: L20.32
   Definitions
      At line 1328 in file fw\lis3dh_driver.s
   Uses
      At line 1321 in file fw\lis3dh_driver.s
Comment: L20.32 used once
LIS3DH_ReadReg 00000000

Symbol: LIS3DH_ReadReg
   Definitions
      At line 1312 in file fw\lis3dh_driver.s
   Uses
      At line 16 in file fw\lis3dh_driver.s
      At line 36 in file fw\lis3dh_driver.s
      At line 54 in file fw\lis3dh_driver.s
      At line 74 in file fw\lis3dh_driver.s
      At line 99 in file fw\lis3dh_driver.s
      At line 119 in file fw\lis3dh_driver.s
      At line 142 in file fw\lis3dh_driver.s
      At line 162 in file fw\lis3dh_driver.s
      At line 185 in file fw\lis3dh_driver.s
      At line 205 in file fw\lis3dh_driver.s
      At line 236 in file fw\lis3dh_driver.s
      At line 302 in file fw\lis3dh_driver.s
      At line 310 in file fw\lis3dh_driver.s
      At line 319 in file fw\lis3dh_driver.s
      At line 326 in file fw\lis3dh_driver.s
      At line 335 in file fw\lis3dh_driver.s
      At line 342 in file fw\lis3dh_driver.s
      At line 361 in file fw\lis3dh_driver.s
      At line 369 in file fw\lis3dh_driver.s
      At line 383 in file fw\lis3dh_driver.s
      At line 390 in file fw\lis3dh_driver.s
      At line 404 in file fw\lis3dh_driver.s
      At line 411 in file fw\lis3dh_driver.s
      At line 435 in file fw\lis3dh_driver.s
      At line 575 in file fw\lis3dh_driver.s
      At line 644 in file fw\lis3dh_driver.s
      At line 667 in file fw\lis3dh_driver.s
      At line 685 in file fw\lis3dh_driver.s
      At line 704 in file fw\lis3dh_driver.s
      At line 827 in file fw\lis3dh_driver.s
      At line 846 in file fw\lis3dh_driver.s
      At line 985 in file fw\lis3dh_driver.s
      At line 1126 in file fw\lis3dh_driver.s
      At line 1144 in file fw\lis3dh_driver.s
      At line 1152 in file fw\lis3dh_driver.s
      At line 1172 in file fw\lis3dh_driver.s
      At line 1190 in file fw\lis3dh_driver.s
      At line 1221 in file fw\lis3dh_driver.s
      At line 1253 in file fw\lis3dh_driver.s
      At line 1285 in file fw\lis3dh_driver.s
      At line 1337 in file fw\lis3dh_driver.s
      At line 1355 in file fw\lis3dh_driver.s
      At line 1387 in file fw\lis3dh_driver.s
      At line 1419 in file fw\lis3dh_driver.s
      At line 1451 in file fw\lis3dh_driver.s



ARM Macro Assembler    Page 2 Alphabetic symbol ordering
Relocatable symbols

      At line 1483 in file fw\lis3dh_driver.s
      At line 1596 in file fw\lis3dh_driver.s
      At line 1628 in file fw\lis3dh_driver.s
      At line 1666 in file fw\lis3dh_driver.s
      At line 1697 in file fw\lis3dh_driver.s
      At line 1752 in file fw\lis3dh_driver.s
      At line 1805 in file fw\lis3dh_driver.s
      At line 1835 in file fw\lis3dh_driver.s
      At line 1843 in file fw\lis3dh_driver.s
      At line 1915 in file fw\lis3dh_driver.s
      At line 1946 in file fw\lis3dh_driver.s
      At line 1978 in file fw\lis3dh_driver.s
      At line 1986 in file fw\lis3dh_driver.s
      At line 2074 in file fw\lis3dh_driver.s
      At line 2106 in file fw\lis3dh_driver.s
      At line 2137 in file fw\lis3dh_driver.s
      At line 2169 in file fw\lis3dh_driver.s
      At line 2201 in file fw\lis3dh_driver.s
      At line 2239 in file fw\lis3dh_driver.s
      At line 356 in file ..\Drivers\CMSIS\Include\core_cmInstr.h

|i.LIS3DH_ReadReg| 00000000

Symbol: |i.LIS3DH_ReadReg|
   Definitions
      At line 1310 in file fw\lis3dh_driver.s
   Uses
      None
Comment: |i.LIS3DH_ReadReg| unused
3 symbols



ARM Macro Assembler    Page 1 Alphabetic symbol ordering
Relocatable symbols

L21.14 0000000E

Symbol: L21.14
   Definitions
      At line 1340 in file fw\lis3dh_driver.s
   Uses
      At line 1344 in file fw\lis3dh_driver.s
Comment: L21.14 used once
L21.16 00000010

Symbol: L21.16
   Definitions
      At line 1342 in file fw\lis3dh_driver.s
   Uses
      At line 1338 in file fw\lis3dh_driver.s
Comment: L21.16 used once
LIS3DH_ResetInt1Latch 00000000

Symbol: LIS3DH_ResetInt1Latch
   Definitions
      At line 1333 in file fw\lis3dh_driver.s
   Uses
      At line 357 in file ..\Drivers\CMSIS\Include\core_cmInstr.h
Comment: LIS3DH_ResetInt1Latch used once
|i.LIS3DH_ResetInt1Latch| 00000000

Symbol: |i.LIS3DH_ResetInt1Latch|
   Definitions
      At line 1331 in file fw\lis3dh_driver.s
   Uses
      None
Comment: |i.LIS3DH_ResetInt1Latch| unused
4 symbols



ARM Macro Assembler    Page 1 Alphabetic symbol ordering
Relocatable symbols

L22.16 00000010

Symbol: L22.16
   Definitions
      At line 1358 in file fw\lis3dh_driver.s
   Uses
      At line 1373 in file fw\lis3dh_driver.s
      At line 1376 in file fw\lis3dh_driver.s

L22.18 00000012

Symbol: L22.18
   Definitions
      At line 1360 in file fw\lis3dh_driver.s
   Uses
      At line 1356 in file fw\lis3dh_driver.s
Comment: L22.18 used once
L22.56 00000038

Symbol: L22.56
   Definitions
      At line 1374 in file fw\lis3dh_driver.s
   Uses
      At line 1371 in file fw\lis3dh_driver.s
Comment: L22.56 used once
LIS3DH_SetADCAux 00000000

Symbol: LIS3DH_SetADCAux
   Definitions
      At line 1350 in file fw\lis3dh_driver.s
   Uses
      At line 358 in file ..\Drivers\CMSIS\Include\core_cmInstr.h
Comment: LIS3DH_SetADCAux used once
|i.LIS3DH_SetADCAux| 00000000

Symbol: |i.LIS3DH_SetADCAux|
   Definitions
      At line 1348 in file fw\lis3dh_driver.s
   Uses
      None
Comment: |i.LIS3DH_SetADCAux| unused
5 symbols



ARM Macro Assembler    Page 1 Alphabetic symbol ordering
Relocatable symbols

L23.16 00000010

Symbol: L23.16
   Definitions
      At line 1390 in file fw\lis3dh_driver.s
   Uses
      At line 1405 in file fw\lis3dh_driver.s
      At line 1408 in file fw\lis3dh_driver.s

L23.18 00000012

Symbol: L23.18
   Definitions
      At line 1392 in file fw\lis3dh_driver.s
   Uses
      At line 1388 in file fw\lis3dh_driver.s
Comment: L23.18 used once
L23.56 00000038

Symbol: L23.56
   Definitions
      At line 1406 in file fw\lis3dh_driver.s
   Uses
      At line 1403 in file fw\lis3dh_driver.s
Comment: L23.56 used once
LIS3DH_SetAxis 00000000

Symbol: LIS3DH_SetAxis
   Definitions
      At line 1382 in file fw\lis3dh_driver.s
   Uses
      At line 359 in file ..\Drivers\CMSIS\Include\core_cmInstr.h
Comment: LIS3DH_SetAxis used once
|i.LIS3DH_SetAxis| 00000000

Symbol: |i.LIS3DH_SetAxis|
   Definitions
      At line 1380 in file fw\lis3dh_driver.s
   Uses
      None
Comment: |i.LIS3DH_SetAxis| unused
5 symbols



ARM Macro Assembler    Page 1 Alphabetic symbol ordering
Relocatable symbols

L24.16 00000010

Symbol: L24.16
   Definitions
      At line 1422 in file fw\lis3dh_driver.s
   Uses
      At line 1437 in file fw\lis3dh_driver.s
      At line 1440 in file fw\lis3dh_driver.s

L24.18 00000012

Symbol: L24.18
   Definitions
      At line 1424 in file fw\lis3dh_driver.s
   Uses
      At line 1420 in file fw\lis3dh_driver.s
Comment: L24.18 used once
L24.56 00000038

Symbol: L24.56
   Definitions
      At line 1438 in file fw\lis3dh_driver.s
   Uses
      At line 1435 in file fw\lis3dh_driver.s
Comment: L24.56 used once
LIS3DH_SetBDU 00000000

Symbol: LIS3DH_SetBDU
   Definitions
      At line 1414 in file fw\lis3dh_driver.s
   Uses
      At line 360 in file ..\Drivers\CMSIS\Include\core_cmInstr.h
Comment: LIS3DH_SetBDU used once
|i.LIS3DH_SetBDU| 00000000

Symbol: |i.LIS3DH_SetBDU|
   Definitions
      At line 1412 in file fw\lis3dh_driver.s
   Uses
      None
Comment: |i.LIS3DH_SetBDU| unused
5 symbols



ARM Macro Assembler    Page 1 Alphabetic symbol ordering
Relocatable symbols

L25.16 00000010

Symbol: L25.16
   Definitions
      At line 1454 in file fw\lis3dh_driver.s
   Uses
      At line 1469 in file fw\lis3dh_driver.s
      At line 1472 in file fw\lis3dh_driver.s

L25.18 00000012

Symbol: L25.18
   Definitions
      At line 1456 in file fw\lis3dh_driver.s
   Uses
      At line 1452 in file fw\lis3dh_driver.s
Comment: L25.18 used once
L25.56 00000038

Symbol: L25.56
   Definitions
      At line 1470 in file fw\lis3dh_driver.s
   Uses
      At line 1467 in file fw\lis3dh_driver.s
Comment: L25.56 used once
LIS3DH_SetBLE 00000000

Symbol: LIS3DH_SetBLE
   Definitions
      At line 1446 in file fw\lis3dh_driver.s
   Uses
      At line 361 in file ..\Drivers\CMSIS\Include\core_cmInstr.h
Comment: LIS3DH_SetBLE used once
|i.LIS3DH_SetBLE| 00000000

Symbol: |i.LIS3DH_SetBLE|
   Definitions
      At line 1444 in file fw\lis3dh_driver.s
   Uses
      None
Comment: |i.LIS3DH_SetBLE| unused
5 symbols



ARM Macro Assembler    Page 1 Alphabetic symbol ordering
Relocatable symbols

L26.16 00000010

Symbol: L26.16
   Definitions
      At line 1486 in file fw\lis3dh_driver.s
   Uses
      At line 1500 in file fw\lis3dh_driver.s
      At line 1503 in file fw\lis3dh_driver.s

L26.18 00000012

Symbol: L26.18
   Definitions
      At line 1488 in file fw\lis3dh_driver.s
   Uses
      At line 1484 in file fw\lis3dh_driver.s
Comment: L26.18 used once
L26.52 00000034

Symbol: L26.52
   Definitions
      At line 1501 in file fw\lis3dh_driver.s
   Uses
      At line 1498 in file fw\lis3dh_driver.s
Comment: L26.52 used once
LIS3DH_SetClickCFG 00000000

Symbol: LIS3DH_SetClickCFG
   Definitions
      At line 1478 in file fw\lis3dh_driver.s
   Uses
      At line 362 in file ..\Drivers\CMSIS\Include\core_cmInstr.h
Comment: LIS3DH_SetClickCFG used once
|i.LIS3DH_SetClickCFG| 00000000

Symbol: |i.LIS3DH_SetClickCFG|
   Definitions
      At line 1476 in file fw\lis3dh_driver.s
   Uses
      None
Comment: |i.LIS3DH_SetClickCFG| unused
5 symbols



ARM Macro Assembler    Page 1 Alphabetic symbol ordering
Relocatable symbols

L27.16 00000010

Symbol: L27.16
   Definitions
      At line 1517 in file fw\lis3dh_driver.s
   Uses
      At line 1521 in file fw\lis3dh_driver.s
Comment: L27.16 used once
L27.18 00000012

Symbol: L27.18
   Definitions
      At line 1519 in file fw\lis3dh_driver.s
   Uses
      At line 1515 in file fw\lis3dh_driver.s
Comment: L27.18 used once
LIS3DH_SetClickLATENCY 00000000

Symbol: LIS3DH_SetClickLATENCY
   Definitions
      At line 1509 in file fw\lis3dh_driver.s
   Uses
      At line 363 in file ..\Drivers\CMSIS\Include\core_cmInstr.h
Comment: LIS3DH_SetClickLATENCY used once
|i.LIS3DH_SetClickLATENCY| 00000000

Symbol: |i.LIS3DH_SetClickLATENCY|
   Definitions
      At line 1507 in file fw\lis3dh_driver.s
   Uses
      None
Comment: |i.LIS3DH_SetClickLATENCY| unused
4 symbols



ARM Macro Assembler    Page 1 Alphabetic symbol ordering
Relocatable symbols

L28.10 0000000A

Symbol: L28.10
   Definitions
      At line 1533 in file fw\lis3dh_driver.s
   Uses
      At line 1541 in file fw\lis3dh_driver.s
      At line 1544 in file fw\lis3dh_driver.s

L28.12 0000000C

Symbol: L28.12
   Definitions
      At line 1535 in file fw\lis3dh_driver.s
   Uses
      At line 1531 in file fw\lis3dh_driver.s
Comment: L28.12 used once
L28.26 0000001A

Symbol: L28.26
   Definitions
      At line 1542 in file fw\lis3dh_driver.s
   Uses
      At line 1539 in file fw\lis3dh_driver.s
Comment: L28.26 used once
LIS3DH_SetClickLIMIT 00000000

Symbol: LIS3DH_SetClickLIMIT
   Definitions
      At line 1527 in file fw\lis3dh_driver.s
   Uses
      At line 364 in file ..\Drivers\CMSIS\Include\core_cmInstr.h
Comment: LIS3DH_SetClickLIMIT used once
|i.LIS3DH_SetClickLIMIT| 00000000

Symbol: |i.LIS3DH_SetClickLIMIT|
   Definitions
      At line 1525 in file fw\lis3dh_driver.s
   Uses
      None
Comment: |i.LIS3DH_SetClickLIMIT| unused
5 symbols



ARM Macro Assembler    Page 1 Alphabetic symbol ordering
Relocatable symbols

L29.10 0000000A

Symbol: L29.10
   Definitions
      At line 1556 in file fw\lis3dh_driver.s
   Uses
      At line 1564 in file fw\lis3dh_driver.s
      At line 1567 in file fw\lis3dh_driver.s

L29.12 0000000C

Symbol: L29.12
   Definitions
      At line 1558 in file fw\lis3dh_driver.s
   Uses
      At line 1554 in file fw\lis3dh_driver.s
Comment: L29.12 used once
L29.26 0000001A

Symbol: L29.26
   Definitions
      At line 1565 in file fw\lis3dh_driver.s
   Uses
      At line 1562 in file fw\lis3dh_driver.s
Comment: L29.26 used once
LIS3DH_SetClickTHS 00000000

Symbol: LIS3DH_SetClickTHS
   Definitions
      At line 1550 in file fw\lis3dh_driver.s
   Uses
      At line 365 in file ..\Drivers\CMSIS\Include\core_cmInstr.h
Comment: LIS3DH_SetClickTHS used once
|i.LIS3DH_SetClickTHS| 00000000

Symbol: |i.LIS3DH_SetClickTHS|
   Definitions
      At line 1548 in file fw\lis3dh_driver.s
   Uses
      None
Comment: |i.LIS3DH_SetClickTHS| unused
5 symbols



ARM Macro Assembler    Page 1 Alphabetic symbol ordering
Relocatable symbols

L30.16 00000010

Symbol: L30.16
   Definitions
      At line 1581 in file fw\lis3dh_driver.s
   Uses
      At line 1585 in file fw\lis3dh_driver.s
Comment: L30.16 used once
L30.18 00000012

Symbol: L30.18
   Definitions
      At line 1583 in file fw\lis3dh_driver.s
   Uses
      At line 1579 in file fw\lis3dh_driver.s
Comment: L30.18 used once
LIS3DH_SetClickWINDOW 00000000

Symbol: LIS3DH_SetClickWINDOW
   Definitions
      At line 1573 in file fw\lis3dh_driver.s
   Uses
      At line 366 in file ..\Drivers\CMSIS\Include\core_cmInstr.h
Comment: LIS3DH_SetClickWINDOW used once
|i.LIS3DH_SetClickWINDOW| 00000000

Symbol: |i.LIS3DH_SetClickWINDOW|
   Definitions
      At line 1571 in file fw\lis3dh_driver.s
   Uses
      None
Comment: |i.LIS3DH_SetClickWINDOW| unused
4 symbols



ARM Macro Assembler    Page 1 Alphabetic symbol ordering
Relocatable symbols

L31.16 00000010

Symbol: L31.16
   Definitions
      At line 1599 in file fw\lis3dh_driver.s
   Uses
      At line 1614 in file fw\lis3dh_driver.s
      At line 1617 in file fw\lis3dh_driver.s

L31.18 00000012

Symbol: L31.18
   Definitions
      At line 1601 in file fw\lis3dh_driver.s
   Uses
      At line 1597 in file fw\lis3dh_driver.s
Comment: L31.18 used once
L31.56 00000038

Symbol: L31.56
   Definitions
      At line 1615 in file fw\lis3dh_driver.s
   Uses
      At line 1612 in file fw\lis3dh_driver.s
Comment: L31.56 used once
LIS3DH_SetFilterDataSel 00000000

Symbol: LIS3DH_SetFilterDataSel
   Definitions
      At line 1591 in file fw\lis3dh_driver.s
   Uses
      At line 367 in file ..\Drivers\CMSIS\Include\core_cmInstr.h
Comment: LIS3DH_SetFilterDataSel used once
|i.LIS3DH_SetFilterDataSel| 00000000

Symbol: |i.LIS3DH_SetFilterDataSel|
   Definitions
      At line 1589 in file fw\lis3dh_driver.s
   Uses
      None
Comment: |i.LIS3DH_SetFilterDataSel| unused
5 symbols



ARM Macro Assembler    Page 1 Alphabetic symbol ordering
Relocatable symbols

L32.16 00000010

Symbol: L32.16
   Definitions
      At line 1631 in file fw\lis3dh_driver.s
   Uses
      At line 1646 in file fw\lis3dh_driver.s
      At line 1649 in file fw\lis3dh_driver.s

L32.18 00000012

Symbol: L32.18
   Definitions
      At line 1633 in file fw\lis3dh_driver.s
   Uses
      At line 1629 in file fw\lis3dh_driver.s
Comment: L32.18 used once
L32.56 00000038

Symbol: L32.56
   Definitions
      At line 1647 in file fw\lis3dh_driver.s
   Uses
      At line 1644 in file fw\lis3dh_driver.s
Comment: L32.56 used once
LIS3DH_SetFullScale 00000000

Symbol: LIS3DH_SetFullScale
   Definitions
      At line 1623 in file fw\lis3dh_driver.s
   Uses
      At line 368 in file ..\Drivers\CMSIS\Include\core_cmInstr.h
Comment: LIS3DH_SetFullScale used once
|i.LIS3DH_SetFullScale| 00000000

Symbol: |i.LIS3DH_SetFullScale|
   Definitions
      At line 1621 in file fw\lis3dh_driver.s
   Uses
      None
Comment: |i.LIS3DH_SetFullScale| unused
5 symbols



ARM Macro Assembler    Page 1 Alphabetic symbol ordering
Relocatable symbols

L33.10 0000000A

Symbol: L33.10
   Definitions
      At line 1661 in file fw\lis3dh_driver.s
   Uses
      At line 1669 in file fw\lis3dh_driver.s
      At line 1683 in file fw\lis3dh_driver.s
      At line 1686 in file fw\lis3dh_driver.s

L33.12 0000000C

Symbol: L33.12
   Definitions
      At line 1663 in file fw\lis3dh_driver.s
   Uses
      At line 1659 in file fw\lis3dh_driver.s
Comment: L33.12 used once
L33.26 0000001A

Symbol: L33.26
   Definitions
      At line 1670 in file fw\lis3dh_driver.s
   Uses
      At line 1667 in file fw\lis3dh_driver.s
Comment: L33.26 used once
L33.64 00000040

Symbol: L33.64
   Definitions
      At line 1684 in file fw\lis3dh_driver.s
   Uses
      At line 1681 in file fw\lis3dh_driver.s
Comment: L33.64 used once
LIS3DH_SetHPFCutOFF 00000000

Symbol: LIS3DH_SetHPFCutOFF
   Definitions
      At line 1655 in file fw\lis3dh_driver.s
   Uses
      At line 369 in file ..\Drivers\CMSIS\Include\core_cmInstr.h
Comment: LIS3DH_SetHPFCutOFF used once
|i.LIS3DH_SetHPFCutOFF| 00000000

Symbol: |i.LIS3DH_SetHPFCutOFF|
   Definitions
      At line 1653 in file fw\lis3dh_driver.s
   Uses
      None
Comment: |i.LIS3DH_SetHPFCutOFF| unused
6 symbols



ARM Macro Assembler    Page 1 Alphabetic symbol ordering
Relocatable symbols

L34.16 00000010

Symbol: L34.16
   Definitions
      At line 1700 in file fw\lis3dh_driver.s
   Uses
      At line 1715 in file fw\lis3dh_driver.s
      At line 1718 in file fw\lis3dh_driver.s

L34.18 00000012

Symbol: L34.18
   Definitions
      At line 1702 in file fw\lis3dh_driver.s
   Uses
      At line 1698 in file fw\lis3dh_driver.s
Comment: L34.18 used once
L34.56 00000038

Symbol: L34.56
   Definitions
      At line 1716 in file fw\lis3dh_driver.s
   Uses
      At line 1713 in file fw\lis3dh_driver.s
Comment: L34.56 used once
LIS3DH_SetHPFMode 00000000

Symbol: LIS3DH_SetHPFMode
   Definitions
      At line 1692 in file fw\lis3dh_driver.s
   Uses
      At line 370 in file ..\Drivers\CMSIS\Include\core_cmInstr.h
Comment: LIS3DH_SetHPFMode used once
|i.LIS3DH_SetHPFMode| 00000000

Symbol: |i.LIS3DH_SetHPFMode|
   Definitions
      At line 1690 in file fw\lis3dh_driver.s
   Uses
      None
Comment: |i.LIS3DH_SetHPFMode| unused
5 symbols



ARM Macro Assembler    Page 1 Alphabetic symbol ordering
Relocatable symbols

L35.10 0000000A

Symbol: L35.10
   Definitions
      At line 1730 in file fw\lis3dh_driver.s
   Uses
      At line 1738 in file fw\lis3dh_driver.s
      At line 1741 in file fw\lis3dh_driver.s

L35.12 0000000C

Symbol: L35.12
   Definitions
      At line 1732 in file fw\lis3dh_driver.s
   Uses
      At line 1728 in file fw\lis3dh_driver.s
Comment: L35.12 used once
L35.26 0000001A

Symbol: L35.26
   Definitions
      At line 1739 in file fw\lis3dh_driver.s
   Uses
      At line 1736 in file fw\lis3dh_driver.s
Comment: L35.26 used once
LIS3DH_SetInt1Duration 00000000

Symbol: LIS3DH_SetInt1Duration
   Definitions
      At line 1724 in file fw\lis3dh_driver.s
   Uses
      At line 371 in file ..\Drivers\CMSIS\Include\core_cmInstr.h
Comment: LIS3DH_SetInt1Duration used once
|i.LIS3DH_SetInt1Duration| 00000000

Symbol: |i.LIS3DH_SetInt1Duration|
   Definitions
      At line 1722 in file fw\lis3dh_driver.s
   Uses
      None
Comment: |i.LIS3DH_SetInt1Duration| unused
5 symbols



ARM Macro Assembler    Page 1 Alphabetic symbol ordering
Relocatable symbols

L36.16 00000010

Symbol: L36.16
   Definitions
      At line 1755 in file fw\lis3dh_driver.s
   Uses
      At line 1768 in file fw\lis3dh_driver.s
      At line 1771 in file fw\lis3dh_driver.s

L36.18 00000012

Symbol: L36.18
   Definitions
      At line 1757 in file fw\lis3dh_driver.s
   Uses
      At line 1753 in file fw\lis3dh_driver.s
Comment: L36.18 used once
L36.46 0000002E

Symbol: L36.46
   Definitions
      At line 1769 in file fw\lis3dh_driver.s
   Uses
      At line 1766 in file fw\lis3dh_driver.s
Comment: L36.46 used once
LIS3DH_SetInt1Pin 00000000

Symbol: LIS3DH_SetInt1Pin
   Definitions
      At line 1747 in file fw\lis3dh_driver.s
   Uses
      At line 372 in file ..\Drivers\CMSIS\Include\core_cmInstr.h
Comment: LIS3DH_SetInt1Pin used once
|i.LIS3DH_SetInt1Pin| 00000000

Symbol: |i.LIS3DH_SetInt1Pin|
   Definitions
      At line 1745 in file fw\lis3dh_driver.s
   Uses
      None
Comment: |i.LIS3DH_SetInt1Pin| unused
5 symbols



ARM Macro Assembler    Page 1 Alphabetic symbol ordering
Relocatable symbols

L37.10 0000000A

Symbol: L37.10
   Definitions
      At line 1783 in file fw\lis3dh_driver.s
   Uses
      At line 1791 in file fw\lis3dh_driver.s
      At line 1794 in file fw\lis3dh_driver.s

L37.12 0000000C

Symbol: L37.12
   Definitions
      At line 1785 in file fw\lis3dh_driver.s
   Uses
      At line 1781 in file fw\lis3dh_driver.s
Comment: L37.12 used once
L37.26 0000001A

Symbol: L37.26
   Definitions
      At line 1792 in file fw\lis3dh_driver.s
   Uses
      At line 1789 in file fw\lis3dh_driver.s
Comment: L37.26 used once
LIS3DH_SetInt1Threshold 00000000

Symbol: LIS3DH_SetInt1Threshold
   Definitions
      At line 1777 in file fw\lis3dh_driver.s
   Uses
      At line 373 in file ..\Drivers\CMSIS\Include\core_cmInstr.h
Comment: LIS3DH_SetInt1Threshold used once
|i.LIS3DH_SetInt1Threshold| 00000000

Symbol: |i.LIS3DH_SetInt1Threshold|
   Definitions
      At line 1775 in file fw\lis3dh_driver.s
   Uses
      None
Comment: |i.LIS3DH_SetInt1Threshold| unused
5 symbols



ARM Macro Assembler    Page 1 Alphabetic symbol ordering
Relocatable symbols

L38.16 00000010

Symbol: L38.16
   Definitions
      At line 1808 in file fw\lis3dh_driver.s
   Uses
      At line 1821 in file fw\lis3dh_driver.s
      At line 1824 in file fw\lis3dh_driver.s

L38.18 00000012

Symbol: L38.18
   Definitions
      At line 1810 in file fw\lis3dh_driver.s
   Uses
      At line 1806 in file fw\lis3dh_driver.s
Comment: L38.18 used once
L38.46 0000002E

Symbol: L38.46
   Definitions
      At line 1822 in file fw\lis3dh_driver.s
   Uses
      At line 1819 in file fw\lis3dh_driver.s
Comment: L38.46 used once
LIS3DH_SetInt2Pin 00000000

Symbol: LIS3DH_SetInt2Pin
   Definitions
      At line 1800 in file fw\lis3dh_driver.s
   Uses
      At line 374 in file ..\Drivers\CMSIS\Include\core_cmInstr.h
Comment: LIS3DH_SetInt2Pin used once
|i.LIS3DH_SetInt2Pin| 00000000

Symbol: |i.LIS3DH_SetInt2Pin|
   Definitions
      At line 1798 in file fw\lis3dh_driver.s
   Uses
      None
Comment: |i.LIS3DH_SetInt2Pin| unused
5 symbols



ARM Macro Assembler    Page 1 Alphabetic symbol ordering
Relocatable symbols

L39.116 00000074

Symbol: L39.116
   Definitions
      At line 1876 in file fw\lis3dh_driver.s
   Uses
      At line 1863 in file fw\lis3dh_driver.s
Comment: L39.116 used once
L39.150 00000096

Symbol: L39.150
   Definitions
      At line 1888 in file fw\lis3dh_driver.s
   Uses
      At line 1877 in file fw\lis3dh_driver.s
Comment: L39.150 used once
L39.16 00000010

Symbol: L39.16
   Definitions
      At line 1838 in file fw\lis3dh_driver.s
   Uses
      At line 1846 in file fw\lis3dh_driver.s
      At line 1894 in file fw\lis3dh_driver.s
      At line 1901 in file fw\lis3dh_driver.s
      At line 1904 in file fw\lis3dh_driver.s

L39.166 000000A6

Symbol: L39.166
   Definitions
      At line 1895 in file fw\lis3dh_driver.s
   Uses
      At line 1892 in file fw\lis3dh_driver.s
Comment: L39.166 used once
L39.18 00000012

Symbol: L39.18
   Definitions
      At line 1840 in file fw\lis3dh_driver.s
   Uses
      At line 1836 in file fw\lis3dh_driver.s
Comment: L39.18 used once
L39.182 000000B6

Symbol: L39.182
   Definitions
      At line 1902 in file fw\lis3dh_driver.s
   Uses
      At line 1899 in file fw\lis3dh_driver.s
Comment: L39.182 used once
L39.32 00000020

Symbol: L39.32
   Definitions
      At line 1847 in file fw\lis3dh_driver.s
   Uses
      At line 1844 in file fw\lis3dh_driver.s
Comment: L39.32 used once



ARM Macro Assembler    Page 2 Alphabetic symbol ordering
Relocatable symbols

L39.72 00000048

Symbol: L39.72
   Definitions
      At line 1861 in file fw\lis3dh_driver.s
   Uses
      At line 1849 in file fw\lis3dh_driver.s
Comment: L39.72 used once
LIS3DH_SetInt6D4DConfiguration 00000000

Symbol: LIS3DH_SetInt6D4DConfiguration
   Definitions
      At line 1830 in file fw\lis3dh_driver.s
   Uses
      At line 375 in file ..\Drivers\CMSIS\Include\core_cmInstr.h
Comment: LIS3DH_SetInt6D4DConfiguration used once
|i.LIS3DH_SetInt6D4DConfiguration| 00000000

Symbol: |i.LIS3DH_SetInt6D4DConfiguration|
   Definitions
      At line 1828 in file fw\lis3dh_driver.s
   Uses
      None
Comment: |i.LIS3DH_SetInt6D4DConfiguration| unused
10 symbols



ARM Macro Assembler    Page 1 Alphabetic symbol ordering
Relocatable symbols

L40.16 00000010

Symbol: L40.16
   Definitions
      At line 1918 in file fw\lis3dh_driver.s
   Uses
      At line 1932 in file fw\lis3dh_driver.s
      At line 1935 in file fw\lis3dh_driver.s

L40.18 00000012

Symbol: L40.18
   Definitions
      At line 1920 in file fw\lis3dh_driver.s
   Uses
      At line 1916 in file fw\lis3dh_driver.s
Comment: L40.18 used once
L40.52 00000034

Symbol: L40.52
   Definitions
      At line 1933 in file fw\lis3dh_driver.s
   Uses
      At line 1930 in file fw\lis3dh_driver.s
Comment: L40.52 used once
LIS3DH_SetIntConfiguration 00000000

Symbol: LIS3DH_SetIntConfiguration
   Definitions
      At line 1910 in file fw\lis3dh_driver.s
   Uses
      At line 376 in file ..\Drivers\CMSIS\Include\core_cmInstr.h
Comment: LIS3DH_SetIntConfiguration used once
|i.LIS3DH_SetIntConfiguration| 00000000

Symbol: |i.LIS3DH_SetIntConfiguration|
   Definitions
      At line 1908 in file fw\lis3dh_driver.s
   Uses
      None
Comment: |i.LIS3DH_SetIntConfiguration| unused
5 symbols



ARM Macro Assembler    Page 1 Alphabetic symbol ordering
Relocatable symbols

L41.16 00000010

Symbol: L41.16
   Definitions
      At line 1949 in file fw\lis3dh_driver.s
   Uses
      At line 1964 in file fw\lis3dh_driver.s
      At line 1967 in file fw\lis3dh_driver.s

L41.18 00000012

Symbol: L41.18
   Definitions
      At line 1951 in file fw\lis3dh_driver.s
   Uses
      At line 1947 in file fw\lis3dh_driver.s
Comment: L41.18 used once
L41.56 00000038

Symbol: L41.56
   Definitions
      At line 1965 in file fw\lis3dh_driver.s
   Uses
      At line 1962 in file fw\lis3dh_driver.s
Comment: L41.56 used once
LIS3DH_SetIntMode 00000000

Symbol: LIS3DH_SetIntMode
   Definitions
      At line 1941 in file fw\lis3dh_driver.s
   Uses
      At line 377 in file ..\Drivers\CMSIS\Include\core_cmInstr.h
Comment: LIS3DH_SetIntMode used once
|i.LIS3DH_SetIntMode| 00000000

Symbol: |i.LIS3DH_SetIntMode|
   Definitions
      At line 1939 in file fw\lis3dh_driver.s
   Uses
      None
Comment: |i.LIS3DH_SetIntMode| unused
5 symbols



ARM Macro Assembler    Page 1 Alphabetic symbol ordering
Relocatable symbols

L42.128 00000080

Symbol: L42.128
   Definitions
      At line 2028 in file fw\lis3dh_driver.s
   Uses
      At line 2003 in file fw\lis3dh_driver.s
Comment: L42.128 used once
L42.16 00000010

Symbol: L42.16
   Definitions
      At line 1981 in file fw\lis3dh_driver.s
   Uses
      At line 1989 in file fw\lis3dh_driver.s
      At line 2043 in file fw\lis3dh_driver.s
      At line 2051 in file fw\lis3dh_driver.s
      At line 2058 in file fw\lis3dh_driver.s
      At line 2061 in file fw\lis3dh_driver.s

L42.166 000000A6

Symbol: L42.166
   Definitions
      At line 2041 in file fw\lis3dh_driver.s
   Uses
      At line 2005 in file fw\lis3dh_driver.s
Comment: L42.166 used once
L42.170 000000AA

Symbol: L42.170
   Definitions
      At line 2044 in file fw\lis3dh_driver.s
   Uses
      At line 2014 in file fw\lis3dh_driver.s
      At line 2027 in file fw\lis3dh_driver.s
      At line 2040 in file fw\lis3dh_driver.s

L42.18 00000012

Symbol: L42.18
   Definitions
      At line 1983 in file fw\lis3dh_driver.s
   Uses
      At line 1979 in file fw\lis3dh_driver.s
Comment: L42.18 used once
L42.188 000000BC

Symbol: L42.188
   Definitions
      At line 2052 in file fw\lis3dh_driver.s
   Uses
      At line 2049 in file fw\lis3dh_driver.s
Comment: L42.188 used once
L42.204 000000CC

Symbol: L42.204
   Definitions
      At line 2059 in file fw\lis3dh_driver.s



ARM Macro Assembler    Page 2 Alphabetic symbol ordering
Relocatable symbols

   Uses
      At line 2056 in file fw\lis3dh_driver.s
Comment: L42.204 used once
L42.208 000000D0

Symbol: L42.208
   Definitions
      At line 2064 in file fw\lis3dh_driver.s
   Uses
      At line 1994 in file fw\lis3dh_driver.s
      At line 2009 in file fw\lis3dh_driver.s

L42.32 00000020

Symbol: L42.32
   Definitions
      At line 1990 in file fw\lis3dh_driver.s
   Uses
      At line 1987 in file fw\lis3dh_driver.s
Comment: L42.32 used once
L42.58 0000003A

Symbol: L42.58
   Definitions
      At line 2000 in file fw\lis3dh_driver.s
   Uses
      At line 1993 in file fw\lis3dh_driver.s
Comment: L42.58 used once
L42.70 00000046

Symbol: L42.70
   Definitions
      At line 2007 in file fw\lis3dh_driver.s
   Uses
      At line 2001 in file fw\lis3dh_driver.s
Comment: L42.70 used once
L42.90 0000005A

Symbol: L42.90
   Definitions
      At line 2015 in file fw\lis3dh_driver.s
   Uses
      At line 2006 in file fw\lis3dh_driver.s
Comment: L42.90 used once
LIS3DH_SetMode 00000000

Symbol: LIS3DH_SetMode
   Definitions
      At line 1973 in file fw\lis3dh_driver.s
   Uses
      At line 378 in file ..\Drivers\CMSIS\Include\core_cmInstr.h
Comment: LIS3DH_SetMode used once
|i.LIS3DH_SetMode| 00000000

Symbol: |i.LIS3DH_SetMode|
   Definitions
      At line 1971 in file fw\lis3dh_driver.s
   Uses
      None



ARM Macro Assembler    Page 3 Alphabetic symbol ordering
Relocatable symbols

Comment: |i.LIS3DH_SetMode| unused
14 symbols



ARM Macro Assembler    Page 1 Alphabetic symbol ordering
Relocatable symbols

L43.16 00000010

Symbol: L43.16
   Definitions
      At line 2077 in file fw\lis3dh_driver.s
   Uses
      At line 2092 in file fw\lis3dh_driver.s
      At line 2095 in file fw\lis3dh_driver.s

L43.18 00000012

Symbol: L43.18
   Definitions
      At line 2079 in file fw\lis3dh_driver.s
   Uses
      At line 2075 in file fw\lis3dh_driver.s
Comment: L43.18 used once
L43.56 00000038

Symbol: L43.56
   Definitions
      At line 2093 in file fw\lis3dh_driver.s
   Uses
      At line 2090 in file fw\lis3dh_driver.s
Comment: L43.56 used once
LIS3DH_SetODR 00000000

Symbol: LIS3DH_SetODR
   Definitions
      At line 2069 in file fw\lis3dh_driver.s
   Uses
      At line 379 in file ..\Drivers\CMSIS\Include\core_cmInstr.h
Comment: LIS3DH_SetODR used once
|i.LIS3DH_SetODR| 00000000

Symbol: |i.LIS3DH_SetODR|
   Definitions
      At line 2067 in file fw\lis3dh_driver.s
   Uses
      None
Comment: |i.LIS3DH_SetODR| unused
5 symbols



ARM Macro Assembler    Page 1 Alphabetic symbol ordering
Relocatable symbols

L44.16 00000010

Symbol: L44.16
   Definitions
      At line 2109 in file fw\lis3dh_driver.s
   Uses
      At line 2123 in file fw\lis3dh_driver.s
      At line 2126 in file fw\lis3dh_driver.s

L44.18 00000012

Symbol: L44.18
   Definitions
      At line 2111 in file fw\lis3dh_driver.s
   Uses
      At line 2107 in file fw\lis3dh_driver.s
Comment: L44.18 used once
L44.52 00000034

Symbol: L44.52
   Definitions
      At line 2124 in file fw\lis3dh_driver.s
   Uses
      At line 2121 in file fw\lis3dh_driver.s
Comment: L44.52 used once
LIS3DH_SetSPIInterface 00000000

Symbol: LIS3DH_SetSPIInterface
   Definitions
      At line 2101 in file fw\lis3dh_driver.s
   Uses
      At line 380 in file ..\Drivers\CMSIS\Include\core_cmInstr.h
Comment: LIS3DH_SetSPIInterface used once
|i.LIS3DH_SetSPIInterface| 00000000

Symbol: |i.LIS3DH_SetSPIInterface|
   Definitions
      At line 2099 in file fw\lis3dh_driver.s
   Uses
      None
Comment: |i.LIS3DH_SetSPIInterface| unused
5 symbols



ARM Macro Assembler    Page 1 Alphabetic symbol ordering
Relocatable symbols

L45.16 00000010

Symbol: L45.16
   Definitions
      At line 2140 in file fw\lis3dh_driver.s
   Uses
      At line 2155 in file fw\lis3dh_driver.s
      At line 2158 in file fw\lis3dh_driver.s

L45.18 00000012

Symbol: L45.18
   Definitions
      At line 2142 in file fw\lis3dh_driver.s
   Uses
      At line 2138 in file fw\lis3dh_driver.s
Comment: L45.18 used once
L45.56 00000038

Symbol: L45.56
   Definitions
      At line 2156 in file fw\lis3dh_driver.s
   Uses
      At line 2153 in file fw\lis3dh_driver.s
Comment: L45.56 used once
LIS3DH_SetSelfTest 00000000

Symbol: LIS3DH_SetSelfTest
   Definitions
      At line 2132 in file fw\lis3dh_driver.s
   Uses
      At line 381 in file ..\Drivers\CMSIS\Include\core_cmInstr.h
Comment: LIS3DH_SetSelfTest used once
|i.LIS3DH_SetSelfTest| 00000000

Symbol: |i.LIS3DH_SetSelfTest|
   Definitions
      At line 2130 in file fw\lis3dh_driver.s
   Uses
      None
Comment: |i.LIS3DH_SetSelfTest| unused
5 symbols



ARM Macro Assembler    Page 1 Alphabetic symbol ordering
Relocatable symbols

L46.16 00000010

Symbol: L46.16
   Definitions
      At line 2172 in file fw\lis3dh_driver.s
   Uses
      At line 2187 in file fw\lis3dh_driver.s
      At line 2190 in file fw\lis3dh_driver.s

L46.18 00000012

Symbol: L46.18
   Definitions
      At line 2174 in file fw\lis3dh_driver.s
   Uses
      At line 2170 in file fw\lis3dh_driver.s
Comment: L46.18 used once
L46.56 00000038

Symbol: L46.56
   Definitions
      At line 2188 in file fw\lis3dh_driver.s
   Uses
      At line 2185 in file fw\lis3dh_driver.s
Comment: L46.56 used once
LIS3DH_SetTemperature 00000000

Symbol: LIS3DH_SetTemperature
   Definitions
      At line 2164 in file fw\lis3dh_driver.s
   Uses
      At line 382 in file ..\Drivers\CMSIS\Include\core_cmInstr.h
Comment: LIS3DH_SetTemperature used once
|i.LIS3DH_SetTemperature| 00000000

Symbol: |i.LIS3DH_SetTemperature|
   Definitions
      At line 2162 in file fw\lis3dh_driver.s
   Uses
      None
Comment: |i.LIS3DH_SetTemperature| unused
5 symbols



ARM Macro Assembler    Page 1 Alphabetic symbol ordering
Relocatable symbols

L47.16 00000010

Symbol: L47.16
   Definitions
      At line 2204 in file fw\lis3dh_driver.s
   Uses
      At line 2219 in file fw\lis3dh_driver.s
      At line 2222 in file fw\lis3dh_driver.s

L47.18 00000012

Symbol: L47.18
   Definitions
      At line 2206 in file fw\lis3dh_driver.s
   Uses
      At line 2202 in file fw\lis3dh_driver.s
Comment: L47.18 used once
L47.56 00000038

Symbol: L47.56
   Definitions
      At line 2220 in file fw\lis3dh_driver.s
   Uses
      At line 2217 in file fw\lis3dh_driver.s
Comment: L47.56 used once
LIS3DH_SetTriggerInt 00000000

Symbol: LIS3DH_SetTriggerInt
   Definitions
      At line 2196 in file fw\lis3dh_driver.s
   Uses
      At line 383 in file ..\Drivers\CMSIS\Include\core_cmInstr.h
Comment: LIS3DH_SetTriggerInt used once
|i.LIS3DH_SetTriggerInt| 00000000

Symbol: |i.LIS3DH_SetTriggerInt|
   Definitions
      At line 2194 in file fw\lis3dh_driver.s
   Uses
      None
Comment: |i.LIS3DH_SetTriggerInt| unused
5 symbols



ARM Macro Assembler    Page 1 Alphabetic symbol ordering
Relocatable symbols

L48.10 0000000A

Symbol: L48.10
   Definitions
      At line 2234 in file fw\lis3dh_driver.s
   Uses
      At line 2242 in file fw\lis3dh_driver.s
      At line 2255 in file fw\lis3dh_driver.s
      At line 2258 in file fw\lis3dh_driver.s

L48.12 0000000C

Symbol: L48.12
   Definitions
      At line 2236 in file fw\lis3dh_driver.s
   Uses
      At line 2232 in file fw\lis3dh_driver.s
Comment: L48.12 used once
L48.26 0000001A

Symbol: L48.26
   Definitions
      At line 2243 in file fw\lis3dh_driver.s
   Uses
      At line 2240 in file fw\lis3dh_driver.s
Comment: L48.26 used once
L48.60 0000003C

Symbol: L48.60
   Definitions
      At line 2256 in file fw\lis3dh_driver.s
   Uses
      At line 2253 in file fw\lis3dh_driver.s
Comment: L48.60 used once
LIS3DH_SetWaterMark 00000000

Symbol: LIS3DH_SetWaterMark
   Definitions
      At line 2228 in file fw\lis3dh_driver.s
   Uses
      At line 384 in file ..\Drivers\CMSIS\Include\core_cmInstr.h
Comment: LIS3DH_SetWaterMark used once
|i.LIS3DH_SetWaterMark| 00000000

Symbol: |i.LIS3DH_SetWaterMark|
   Definitions
      At line 2226 in file fw\lis3dh_driver.s
   Uses
      None
Comment: |i.LIS3DH_SetWaterMark| unused
6 symbols



ARM Macro Assembler    Page 1 Alphabetic symbol ordering
Relocatable symbols

LIS3DH_WriteReg 00000000

Symbol: LIS3DH_WriteReg
   Definitions
      At line 2264 in file fw\lis3dh_driver.s
   Uses
      At line 29 in file fw\lis3dh_driver.s
      At line 46 in file fw\lis3dh_driver.s
      At line 67 in file fw\lis3dh_driver.s
      At line 88 in file fw\lis3dh_driver.s
      At line 112 in file fw\lis3dh_driver.s
      At line 133 in file fw\lis3dh_driver.s
      At line 155 in file fw\lis3dh_driver.s
      At line 176 in file fw\lis3dh_driver.s
      At line 198 in file fw\lis3dh_driver.s
      At line 219 in file fw\lis3dh_driver.s
      At line 1204 in file fw\lis3dh_driver.s
      At line 1236 in file fw\lis3dh_driver.s
      At line 1268 in file fw\lis3dh_driver.s
      At line 1300 in file fw\lis3dh_driver.s
      At line 1370 in file fw\lis3dh_driver.s
      At line 1402 in file fw\lis3dh_driver.s
      At line 1434 in file fw\lis3dh_driver.s
      At line 1466 in file fw\lis3dh_driver.s
      At line 1497 in file fw\lis3dh_driver.s
      At line 1514 in file fw\lis3dh_driver.s
      At line 1538 in file fw\lis3dh_driver.s
      At line 1561 in file fw\lis3dh_driver.s
      At line 1578 in file fw\lis3dh_driver.s
      At line 1611 in file fw\lis3dh_driver.s
      At line 1643 in file fw\lis3dh_driver.s
      At line 1680 in file fw\lis3dh_driver.s
      At line 1712 in file fw\lis3dh_driver.s
      At line 1735 in file fw\lis3dh_driver.s
      At line 1765 in file fw\lis3dh_driver.s
      At line 1788 in file fw\lis3dh_driver.s
      At line 1818 in file fw\lis3dh_driver.s
      At line 1891 in file fw\lis3dh_driver.s
      At line 1898 in file fw\lis3dh_driver.s
      At line 1929 in file fw\lis3dh_driver.s
      At line 1961 in file fw\lis3dh_driver.s
      At line 2048 in file fw\lis3dh_driver.s
      At line 2055 in file fw\lis3dh_driver.s
      At line 2089 in file fw\lis3dh_driver.s
      At line 2120 in file fw\lis3dh_driver.s
      At line 2152 in file fw\lis3dh_driver.s
      At line 2184 in file fw\lis3dh_driver.s
      At line 2216 in file fw\lis3dh_driver.s
      At line 2252 in file fw\lis3dh_driver.s
      At line 385 in file ..\Drivers\CMSIS\Include\core_cmInstr.h

|i.LIS3DH_WriteReg| 00000000

Symbol: |i.LIS3DH_WriteReg|
   Definitions
      At line 2262 in file fw\lis3dh_driver.s
   Uses
      None
Comment: |i.LIS3DH_WriteReg| unused



ARM Macro Assembler    Page 2 Alphabetic symbol ordering
Relocatable symbols

2 symbols



ARM Macro Assembler    Page 1 Alphabetic symbol ordering
Relocatable symbols

|.arm_vfe_header| 00000000

Symbol: |.arm_vfe_header|
   Definitions
      At line 2271 in file fw\lis3dh_driver.s
   Uses
      None
Comment: |.arm_vfe_header| unused
1 symbol



ARM Macro Assembler    Page 1 Alphabetic symbol ordering
Relocatable symbols

ODR_old_value 00000000

Symbol: ODR_old_value
   Definitions
      At line 2277 in file fw\lis3dh_driver.s
   Uses
      At line 2065 in file fw\lis3dh_driver.s
      At line 391 in file ..\Drivers\CMSIS\Include\core_cmInstr.h

|.data| 00000000

Symbol: |.data|
   Definitions
      At line 2275 in file fw\lis3dh_driver.s
   Uses
      None
Comment: |.data| unused
2 symbols



ARM Macro Assembler    Page 1 Alphabetic symbol ordering
Relocatable symbols

__asm___15_lis3dh_driver_c_5c9e0f0f____REV16 00000000

Symbol: __asm___15_lis3dh_driver_c_5c9e0f0f____REV16
   Definitions
      At line 138 in file ..\Drivers\CMSIS\Include\core_cmInstr.h
   Uses
      At line 3 in file ..\\Src\\lis3dh_driver.c
Comment: __asm___15_lis3dh_driver_c_5c9e0f0f____REV16 used once
|.rev16_text| 00000000

Symbol: |.rev16_text|
   Definitions
      At line 1 in file ..\\Src\\lis3dh_driver.c
   Uses
      None
Comment: |.rev16_text| unused
2 symbols



ARM Macro Assembler    Page 1 Alphabetic symbol ordering
Relocatable symbols

__asm___15_lis3dh_driver_c_5c9e0f0f____REVSH 00000000

Symbol: __asm___15_lis3dh_driver_c_5c9e0f0f____REVSH
   Definitions
      At line 153 in file ..\Drivers\CMSIS\Include\core_cmInstr.h
   Uses
      At line 145 in file ..\Drivers\CMSIS\Include\core_cmInstr.h
Comment: __asm___15_lis3dh_driver_c_5c9e0f0f____REVSH used once
|.revsh_text| 00000000

Symbol: |.revsh_text|
   Definitions
      At line 143 in file ..\Drivers\CMSIS\Include\core_cmInstr.h
   Uses
      None
Comment: |.revsh_text| unused
2 symbols



ARM Macro Assembler    Page 1 Alphabetic symbol ordering
Relocatable symbols

__asm___15_lis3dh_driver_c_5c9e0f0f____RRX 00000000

Symbol: __asm___15_lis3dh_driver_c_5c9e0f0f____RRX
   Definitions
      At line 328 in file ..\Drivers\CMSIS\Include\core_cmInstr.h
   Uses
      At line 160 in file ..\Drivers\CMSIS\Include\core_cmInstr.h
Comment: __asm___15_lis3dh_driver_c_5c9e0f0f____RRX used once
|.rrx_text| 00000000

Symbol: |.rrx_text|
   Definitions
      At line 158 in file ..\Drivers\CMSIS\Include\core_cmInstr.h
   Uses
      None
Comment: |.rrx_text| unused
2 symbols



ARM Macro Assembler    Page 1 Alphabetic symbol ordering
External symbols

HAL_SPI_TransmitReceive 00000000

Symbol: HAL_SPI_TransmitReceive
   Definitions
      At line 388 in file ..\Drivers\CMSIS\Include\core_cmInstr.h
   Uses
      At line 1322 in file fw\lis3dh_driver.s
Comment: HAL_SPI_TransmitReceive used once
hspi1 00000000

Symbol: hspi1
   Definitions
      At line 389 in file ..\Drivers\CMSIS\Include\core_cmInstr.h
   Uses
      At line 1329 in file fw\lis3dh_driver.s
Comment: hspi1 used once
|Lib$$Request$$armlib| 00000000

Symbol: |Lib$$Request$$armlib|
   Definitions
      At line 387 in file ..\Drivers\CMSIS\Include\core_cmInstr.h
   Uses
      None
Comment: |Lib$$Request$$armlib| unused
3 symbols
697 symbols in table
